
build/output.elf:     file format elf32-littlearm


Disassembly of section .init:

00008000 <_start>:
    8000:	ea001ddd 	b	f77c <main>

Disassembly of section .text:

0000b800 <SETDIRECTIONS>:
    b800:	e52d1004 	push	{r1}		; (str r1, [sp, #-4]!)
    b804:	e1df10b4 	ldrh	r1, [pc, #4]	; b810 <SETDIRECTIONS+0x10>
    b808:	e1a03004 	mov	r3, r4
    b80c:	e1a00005 	mov	r0, r5
    b810:	00009080 	.word	0x00009080
    b814:	e1c100b0 	strh	r0, [r1]
    b818:	e49d1004 	pop	{r1}		; (ldr r1, [sp], #4)
    b81c:	e3510001 	cmp	r1, #1
    b820:	0a0000d1 	beq	bb6c <D1>
    b824:	e3510002 	cmp	r1, #2
    b828:	0a0000de 	beq	bba8 <D2>
    b82c:	e3510003 	cmp	r1, #3
    b830:	0a0000eb 	beq	bbe4 <D3>
    b834:	e3510004 	cmp	r1, #4
    b838:	0a0000f8 	beq	bc20 <D4>
    b83c:	e3510005 	cmp	r1, #5
    b840:	0a000105 	beq	bc5c <D5>
    b844:	e3510006 	cmp	r1, #6
    b848:	0a00010f 	beq	bc8c <D6>
    b84c:	e3510007 	cmp	r1, #7
    b850:	0a000119 	beq	bcbc <D7>
    b854:	e3510008 	cmp	r1, #8
    b858:	0a000123 	beq	bcec <D8>
    b85c:	e3510009 	cmp	r1, #9
    b860:	0a00012d 	beq	bd1c <D9>
    b864:	e351000a 	cmp	r1, #10
    b868:	0a000137 	beq	bd4c <D10>
    b86c:	e351000b 	cmp	r1, #11
    b870:	0a000141 	beq	bd7c <D11>
    b874:	e351000c 	cmp	r1, #12
    b878:	0a00014c 	beq	bdb0 <D12>
    b87c:	e351000d 	cmp	r1, #13
    b880:	0a000157 	beq	bde4 <D13>
    b884:	e351000e 	cmp	r1, #14
    b888:	0a000163 	beq	be1c <D14>
    b88c:	e351000f 	cmp	r1, #15
    b890:	0a00016f 	beq	be54 <D15>

0000b894 <DOORGEN>:
    b894:	e52d1004 	push	{r1}		; (str r1, [sp, #-4]!)
    b898:	e52d3004 	push	{r3}		; (str r3, [sp, #-4]!)
    b89c:	e3a00003 	mov	r0, #3
    b8a0:	e52de004 	push	{lr}		; (str lr, [sp, #-4]!)
    b8a4:	eb001189 	bl	fed0 <randomization>
    b8a8:	e49de004 	pop	{lr}		; (ldr lr, [sp], #4)
    b8ac:	e3520001 	cmp	r2, #1
    b8b0:	1a00009c 	bne	bb28 <DOORGENEND2>
    b8b4:	e15f10b4 	ldrh	r1, [pc, #-4]	; b8b8 <DOORGEN+0x24>
    b8b8:	00009080 	.word	0x00009080
    b8bc:	e1d110b0 	ldrh	r1, [r1]
    b8c0:	e0811004 	add	r1, r1, r4
    b8c4:	e49d3004 	pop	{r3}		; (ldr r3, [sp], #4)
    b8c8:	e2432022 	sub	r2, r3, #34	; 0x22
    b8cc:	e1510002 	cmp	r1, r2
    b8d0:	0a00003a 	beq	b9c0 <UPORIG>
    b8d4:	e2832002 	add	r2, r3, #2
    b8d8:	e1510002 	cmp	r1, r2
    b8dc:	0a000016 	beq	b93c <RIGHTORIG>
    b8e0:	e2832022 	add	r2, r3, #34	; 0x22
    b8e4:	e1510002 	cmp	r1, r2
    b8e8:	0a00001e 	beq	b968 <DOWNORIG>
    b8ec:	e2432002 	sub	r2, r3, #2
    b8f0:	e1510002 	cmp	r1, r2
    b8f4:	0a000026 	beq	b994 <LEFTORIG>
    b8f8:	ea00008d 	b	bb34 <DOORGENEND3>

0000b8fc <KEYGEN>:
    b8fc:	e3580001 	cmp	r8, #1
    b900:	2a00000c 	bcs	b938 <KEYGENEND>
    b904:	e3a00002 	mov	r0, #2
    b908:	e92d000a 	push	{r1, r3}
    b90c:	e52de004 	push	{lr}		; (str lr, [sp, #-4]!)
    b910:	eb00116e 	bl	fed0 <randomization>
    b914:	e49de004 	pop	{lr}		; (ldr lr, [sp], #4)
    b918:	e3520001 	cmp	r2, #1
    b91c:	e8bd000a 	pop	{r1, r3}
    b920:	1a000004 	bne	b938 <KEYGENEND>
    b924:	e3a02004 	mov	r2, #4
    b928:	e5c32000 	strb	r2, [r3]
    b92c:	e2866001 	add	r6, r6, #1
    b930:	e3a09000 	mov	r9, #0
    b934:	e3a0a001 	mov	sl, #1

0000b938 <KEYGENEND>:
    b938:	e12fff1e 	bx	lr

0000b93c <RIGHTORIG>:
    b93c:	e52d3004 	push	{r3}		; (str r3, [sp, #-4]!)
    b940:	e3a00002 	mov	r0, #2
    b944:	e52de004 	push	{lr}		; (str lr, [sp, #-4]!)
    b948:	eb001160 	bl	fed0 <randomization>
    b94c:	e49de004 	pop	{lr}		; (ldr lr, [sp], #4)
    b950:	e49d3004 	pop	{r3}		; (ldr r3, [sp], #4)
    b954:	e49d1004 	pop	{r1}		; (ldr r1, [sp], #4)

0000b958 <DEBUG1>:
    b958:	e1a00003 	mov	r0, r3
    b95c:	e3520002 	cmp	r2, #2
    b960:	ba000021 	blt	b9ec <GUP>
    b964:	0a00002a 	beq	ba14 <GDOWN>

0000b968 <DOWNORIG>:
    b968:	e52d3004 	push	{r3}		; (str r3, [sp, #-4]!)
    b96c:	e3a00002 	mov	r0, #2
    b970:	e52de004 	push	{lr}		; (str lr, [sp, #-4]!)
    b974:	eb001155 	bl	fed0 <randomization>
    b978:	e49de004 	pop	{lr}		; (ldr lr, [sp], #4)
    b97c:	e49d3004 	pop	{r3}		; (ldr r3, [sp], #4)
    b980:	e49d1004 	pop	{r1}		; (ldr r1, [sp], #4)

0000b984 <DEBUG2>:
    b984:	e1a00003 	mov	r0, r3
    b988:	e3520002 	cmp	r2, #2
    b98c:	ba00002a 	blt	ba3c <GLEFT>
    b990:	0a000043 	beq	baa4 <GRIGHT>

0000b994 <LEFTORIG>:
    b994:	e52d3004 	push	{r3}		; (str r3, [sp, #-4]!)
    b998:	e3a00002 	mov	r0, #2
    b99c:	e52de004 	push	{lr}		; (str lr, [sp, #-4]!)
    b9a0:	eb00114a 	bl	fed0 <randomization>
    b9a4:	e49de004 	pop	{lr}		; (ldr lr, [sp], #4)
    b9a8:	e49d3004 	pop	{r3}		; (ldr r3, [sp], #4)
    b9ac:	e49d1004 	pop	{r1}		; (ldr r1, [sp], #4)

0000b9b0 <DEBUG3>:
    b9b0:	e1a00003 	mov	r0, r3
    b9b4:	e3520002 	cmp	r2, #2
    b9b8:	ba00000b 	blt	b9ec <GUP>
    b9bc:	0a000014 	beq	ba14 <GDOWN>

0000b9c0 <UPORIG>:
    b9c0:	e52d3004 	push	{r3}		; (str r3, [sp, #-4]!)
    b9c4:	e3a00002 	mov	r0, #2
    b9c8:	e52de004 	push	{lr}		; (str lr, [sp, #-4]!)
    b9cc:	eb00113f 	bl	fed0 <randomization>
    b9d0:	e49de004 	pop	{lr}		; (ldr lr, [sp], #4)
    b9d4:	e49d3004 	pop	{r3}		; (ldr r3, [sp], #4)
    b9d8:	e49d1004 	pop	{r1}		; (ldr r1, [sp], #4)

0000b9dc <DEBUG4>:
    b9dc:	e1a00003 	mov	r0, r3
    b9e0:	e3520002 	cmp	r2, #2
    b9e4:	ba000014 	blt	ba3c <GLEFT>
    b9e8:	0a00002d 	beq	baa4 <GRIGHT>

0000b9ec <GUP>:
    b9ec:	e52d5004 	push	{r5}		; (str r5, [sp, #-4]!)
    b9f0:	e0435004 	sub	r5, r3, r4
    b9f4:	e3550023 	cmp	r5, #35	; 0x23
    b9f8:	e49d5004 	pop	{r5}		; (ldr r5, [sp], #4)
    b9fc:	ba000004 	blt	ba14 <GDOWN>
    ba00:	e2433011 	sub	r3, r3, #17
    ba04:	e3a02001 	mov	r2, #1
    ba08:	e5c32000 	strb	r2, [r3]
    ba0c:	e52d1004 	push	{r1}		; (str r1, [sp, #-4]!)
    ba10:	ea00003d 	b	bb0c <DOORGENEND>

0000ba14 <GDOWN>:
    ba14:	e52d5004 	push	{r5}		; (str r5, [sp, #-4]!)
    ba18:	e0435004 	sub	r5, r3, r4
    ba1c:	e35500ff 	cmp	r5, #255	; 0xff
    ba20:	e49d5004 	pop	{r5}		; (ldr r5, [sp], #4)
    ba24:	cafffff0 	bgt	b9ec <GUP>
    ba28:	e2833011 	add	r3, r3, #17
    ba2c:	e3a02001 	mov	r2, #1
    ba30:	e5c32000 	strb	r2, [r3]
    ba34:	e52d1004 	push	{r1}		; (str r1, [sp, #-4]!)
    ba38:	ea000033 	b	bb0c <DOORGENEND>

0000ba3c <GLEFT>:
    ba3c:	e92d0027 	push	{r0, r1, r2, r5}
    ba40:	e3a0001e 	mov	r0, #30
    ba44:	e3a02000 	mov	r2, #0
    ba48:	e0435004 	sub	r5, r3, r4

0000ba4c <GLEFTLOOP>:
    ba4c:	e3500000 	cmp	r0, #0
    ba50:	0a000007 	beq	ba74 <GLEFTCONT>
    ba54:	e59f1438 	ldr	r1, [pc, #1080]	; be94 <D15END+0x4>
    ba58:	e0811002 	add	r1, r1, r2
    ba5c:	e1d110b0 	ldrh	r1, [r1]
    ba60:	e1550001 	cmp	r5, r1
    ba64:	0a000008 	beq	ba8c <GLEFTANTI>
    ba68:	e2400001 	sub	r0, r0, #1
    ba6c:	e2822002 	add	r2, r2, #2
    ba70:	eafffff5 	b	ba4c <GLEFTLOOP>

0000ba74 <GLEFTCONT>:
    ba74:	e8bd0027 	pop	{r0, r1, r2, r5}
    ba78:	e2433001 	sub	r3, r3, #1
    ba7c:	e3a02001 	mov	r2, #1
    ba80:	e5c32000 	strb	r2, [r3]
    ba84:	e52d1004 	push	{r1}		; (str r1, [sp, #-4]!)
    ba88:	ea00001f 	b	bb0c <DOORGENEND>

0000ba8c <GLEFTANTI>:
    ba8c:	e8bd0027 	pop	{r0, r1, r2, r5}
    ba90:	e2833001 	add	r3, r3, #1
    ba94:	e3a02001 	mov	r2, #1
    ba98:	e5c32000 	strb	r2, [r3]
    ba9c:	e52d1004 	push	{r1}		; (str r1, [sp, #-4]!)
    baa0:	ea000019 	b	bb0c <DOORGENEND>

0000baa4 <GRIGHT>:
    baa4:	e92d0027 	push	{r0, r1, r2, r5}
    baa8:	e3a0001e 	mov	r0, #30
    baac:	e3a02000 	mov	r2, #0
    bab0:	e0435004 	sub	r5, r3, r4

0000bab4 <GRIGHTLOOP>:
    bab4:	e3500000 	cmp	r0, #0
    bab8:	0a000007 	beq	badc <GRIGHTCONT>
    babc:	e59f13d4 	ldr	r1, [pc, #980]	; be98 <D15END+0x8>
    bac0:	e0811002 	add	r1, r1, r2
    bac4:	e1d110b0 	ldrh	r1, [r1]
    bac8:	e1550001 	cmp	r5, r1
    bacc:	0a000008 	beq	baf4 <GRIGHTANTI>
    bad0:	e2400001 	sub	r0, r0, #1
    bad4:	e2822002 	add	r2, r2, #2
    bad8:	eafffff5 	b	bab4 <GRIGHTLOOP>

0000badc <GRIGHTCONT>:
    badc:	e8bd0027 	pop	{r0, r1, r2, r5}
    bae0:	e2833001 	add	r3, r3, #1
    bae4:	e3a02001 	mov	r2, #1
    bae8:	e5c32000 	strb	r2, [r3]
    baec:	e52d1004 	push	{r1}		; (str r1, [sp, #-4]!)
    baf0:	ea000005 	b	bb0c <DOORGENEND>

0000baf4 <GRIGHTANTI>:
    baf4:	e8bd0027 	pop	{r0, r1, r2, r5}
    baf8:	e2433001 	sub	r3, r3, #1
    bafc:	e3a02001 	mov	r2, #1
    bb00:	e5c32000 	strb	r2, [r3]
    bb04:	e52d1004 	push	{r1}		; (str r1, [sp, #-4]!)
    bb08:	eaffffff 	b	bb0c <DOORGENEND>

0000bb0c <DOORGENEND>:
    bb0c:	e49d1004 	pop	{r1}		; (ldr r1, [sp], #4)
    bb10:	e1a03000 	mov	r3, r0
    bb14:	e2877001 	add	r7, r7, #1
    bb18:	e3a08003 	mov	r8, #3
    bb1c:	e3a0a000 	mov	sl, #0
    bb20:	e3a09001 	mov	r9, #1
    bb24:	e12fff1e 	bx	lr

0000bb28 <DOORGENEND2>:
    bb28:	e49d3004 	pop	{r3}		; (ldr r3, [sp], #4)
    bb2c:	e49d1004 	pop	{r1}		; (ldr r1, [sp], #4)
    bb30:	e12fff1e 	bx	lr

0000bb34 <DOORGENEND3>:
    bb34:	e49d1004 	pop	{r1}		; (ldr r1, [sp], #4)
    bb38:	e12fff1e 	bx	lr

0000bb3c <RANDOMEVENTS>:
    bb3c:	e3590001 	cmp	r9, #1
    bb40:	e52de004 	push	{lr}		; (str lr, [sp, #-4]!)
    bb44:	0bffff6c 	bleq	b8fc <KEYGEN>
    bb48:	e49de004 	pop	{lr}		; (ldr lr, [sp], #4)
    bb4c:	e35a0001 	cmp	sl, #1
    bb50:	0a000001 	beq	bb5c <R2>
    bb54:	e3580000 	cmp	r8, #0
    bb58:	12488001 	subne	r8, r8, #1

0000bb5c <R2>:
    bb5c:	e52de004 	push	{lr}		; (str lr, [sp, #-4]!)
    bb60:	0bffff4b 	bleq	b894 <DOORGEN>
    bb64:	e49de004 	pop	{lr}		; (ldr lr, [sp], #4)
    bb68:	e12fff1e 	bx	lr

0000bb6c <D1>:
    bb6c:	e1a03004 	mov	r3, r4
    bb70:	e1a00005 	mov	r0, r5
    bb74:	e2400011 	sub	r0, r0, #17
    bb78:	e0833000 	add	r3, r3, r0
    bb7c:	e5d32000 	ldrb	r2, [r3]
    bb80:	e3520001 	cmp	r2, #1
    bb84:	e3a02003 	mov	r2, #3
    bb88:	0a000000 	beq	bb90 <D1J>
    bb8c:	e5c32000 	strb	r2, [r3]

0000bb90 <D1J>:
    bb90:	e2433011 	sub	r3, r3, #17
    bb94:	e5c32000 	strb	r2, [r3]
    bb98:	e52de004 	push	{lr}		; (str lr, [sp, #-4]!)
    bb9c:	ebffffe6 	bl	bb3c <RANDOMEVENTS>
    bba0:	e49de004 	pop	{lr}		; (ldr lr, [sp], #4)
    bba4:	e12fff1e 	bx	lr

0000bba8 <D2>:
    bba8:	e1a03004 	mov	r3, r4
    bbac:	e1a00005 	mov	r0, r5
    bbb0:	e2400001 	sub	r0, r0, #1
    bbb4:	e0833000 	add	r3, r3, r0
    bbb8:	e5d32000 	ldrb	r2, [r3]
    bbbc:	e3520001 	cmp	r2, #1
    bbc0:	e3a02003 	mov	r2, #3
    bbc4:	0a000000 	beq	bbcc <D2J>
    bbc8:	e5c32000 	strb	r2, [r3]

0000bbcc <D2J>:
    bbcc:	e2433001 	sub	r3, r3, #1
    bbd0:	e5c32000 	strb	r2, [r3]
    bbd4:	e52de004 	push	{lr}		; (str lr, [sp, #-4]!)
    bbd8:	ebffffd7 	bl	bb3c <RANDOMEVENTS>
    bbdc:	e49de004 	pop	{lr}		; (ldr lr, [sp], #4)
    bbe0:	e12fff1e 	bx	lr

0000bbe4 <D3>:
    bbe4:	e1a03004 	mov	r3, r4
    bbe8:	e1a00005 	mov	r0, r5
    bbec:	e2800001 	add	r0, r0, #1
    bbf0:	e0833000 	add	r3, r3, r0
    bbf4:	e5d32000 	ldrb	r2, [r3]
    bbf8:	e3520001 	cmp	r2, #1
    bbfc:	e3a02003 	mov	r2, #3
    bc00:	0a000000 	beq	bc08 <D3J>
    bc04:	e5c32000 	strb	r2, [r3]

0000bc08 <D3J>:
    bc08:	e2833001 	add	r3, r3, #1
    bc0c:	e5c32000 	strb	r2, [r3]
    bc10:	e52de004 	push	{lr}		; (str lr, [sp, #-4]!)
    bc14:	ebffffc8 	bl	bb3c <RANDOMEVENTS>
    bc18:	e49de004 	pop	{lr}		; (ldr lr, [sp], #4)
    bc1c:	e12fff1e 	bx	lr

0000bc20 <D4>:
    bc20:	e1a03004 	mov	r3, r4
    bc24:	e1a00005 	mov	r0, r5
    bc28:	e2800011 	add	r0, r0, #17
    bc2c:	e0833000 	add	r3, r3, r0
    bc30:	e5d32000 	ldrb	r2, [r3]
    bc34:	e3520001 	cmp	r2, #1
    bc38:	e3a02003 	mov	r2, #3
    bc3c:	0a000000 	beq	bc44 <D4J>
    bc40:	e5c32000 	strb	r2, [r3]

0000bc44 <D4J>:
    bc44:	e2833011 	add	r3, r3, #17
    bc48:	e5c32000 	strb	r2, [r3]
    bc4c:	e52de004 	push	{lr}		; (str lr, [sp, #-4]!)
    bc50:	ebffffb9 	bl	bb3c <RANDOMEVENTS>
    bc54:	e49de004 	pop	{lr}		; (ldr lr, [sp], #4)
    bc58:	e12fff1e 	bx	lr

0000bc5c <D5>:
    bc5c:	e1a03004 	mov	r3, r4
    bc60:	e1a00005 	mov	r0, r5
    bc64:	e3a00002 	mov	r0, #2
    bc68:	e92d000a 	push	{r1, r3}
    bc6c:	e52de004 	push	{lr}		; (str lr, [sp, #-4]!)
    bc70:	eb001096 	bl	fed0 <randomization>
    bc74:	e49de004 	pop	{lr}		; (ldr lr, [sp], #4)
    bc78:	e3520002 	cmp	r2, #2
    bc7c:	e8bd000a 	pop	{r1, r3}
    bc80:	0affffc8 	beq	bba8 <D2>
    bc84:	daffffd6 	ble	bbe4 <D3>
    bc88:	e12fff1e 	bx	lr

0000bc8c <D6>:
    bc8c:	e1a03004 	mov	r3, r4
    bc90:	e1a00005 	mov	r0, r5
    bc94:	e3a00002 	mov	r0, #2
    bc98:	e92d000a 	push	{r1, r3}
    bc9c:	e52de004 	push	{lr}		; (str lr, [sp, #-4]!)
    bca0:	eb00108a 	bl	fed0 <randomization>
    bca4:	e49de004 	pop	{lr}		; (ldr lr, [sp], #4)
    bca8:	e3520002 	cmp	r2, #2
    bcac:	e8bd000a 	pop	{r1, r3}
    bcb0:	0affffda 	beq	bc20 <D4>
    bcb4:	1affffca 	bne	bbe4 <D3>
    bcb8:	e12fff1e 	bx	lr

0000bcbc <D7>:
    bcbc:	e1a03004 	mov	r3, r4
    bcc0:	e1a00005 	mov	r0, r5
    bcc4:	e3a00002 	mov	r0, #2
    bcc8:	e92d000a 	push	{r1, r3}
    bccc:	e52de004 	push	{lr}		; (str lr, [sp, #-4]!)
    bcd0:	eb00107e 	bl	fed0 <randomization>
    bcd4:	e49de004 	pop	{lr}		; (ldr lr, [sp], #4)
    bcd8:	e3520002 	cmp	r2, #2
    bcdc:	e8bd000a 	pop	{r1, r3}
    bce0:	0affffce 	beq	bc20 <D4>
    bce4:	1affffaf 	bne	bba8 <D2>
    bce8:	e12fff1e 	bx	lr

0000bcec <D8>:
    bcec:	e1a03004 	mov	r3, r4
    bcf0:	e1a00005 	mov	r0, r5
    bcf4:	e3a00002 	mov	r0, #2
    bcf8:	e92d000a 	push	{r1, r3}
    bcfc:	e52de004 	push	{lr}		; (str lr, [sp, #-4]!)
    bd00:	eb001072 	bl	fed0 <randomization>
    bd04:	e49de004 	pop	{lr}		; (ldr lr, [sp], #4)
    bd08:	e3520002 	cmp	r2, #2
    bd0c:	e8bd000a 	pop	{r1, r3}
    bd10:	0affffc2 	beq	bc20 <D4>
    bd14:	1affff94 	bne	bb6c <D1>
    bd18:	e12fff1e 	bx	lr

0000bd1c <D9>:
    bd1c:	e1a03004 	mov	r3, r4
    bd20:	e1a00005 	mov	r0, r5
    bd24:	e3a00002 	mov	r0, #2
    bd28:	e92d000a 	push	{r1, r3}
    bd2c:	e52de004 	push	{lr}		; (str lr, [sp, #-4]!)
    bd30:	eb001066 	bl	fed0 <randomization>
    bd34:	e49de004 	pop	{lr}		; (ldr lr, [sp], #4)
    bd38:	e3520002 	cmp	r2, #2
    bd3c:	e8bd000a 	pop	{r1, r3}
    bd40:	0affffa7 	beq	bbe4 <D3>
    bd44:	1affff88 	bne	bb6c <D1>
    bd48:	e12fff1e 	bx	lr

0000bd4c <D10>:
    bd4c:	e1a03004 	mov	r3, r4
    bd50:	e1a00005 	mov	r0, r5
    bd54:	e3a00002 	mov	r0, #2
    bd58:	e92d000a 	push	{r1, r3}
    bd5c:	e52de004 	push	{lr}		; (str lr, [sp, #-4]!)
    bd60:	eb00105a 	bl	fed0 <randomization>
    bd64:	e49de004 	pop	{lr}		; (ldr lr, [sp], #4)
    bd68:	e3520002 	cmp	r2, #2
    bd6c:	e8bd000a 	pop	{r1, r3}
    bd70:	0affff8c 	beq	bba8 <D2>
    bd74:	1affff7c 	bne	bb6c <D1>
    bd78:	e12fff1e 	bx	lr

0000bd7c <D11>:
    bd7c:	e1a03004 	mov	r3, r4
    bd80:	e1a00005 	mov	r0, r5
    bd84:	e3a00003 	mov	r0, #3
    bd88:	e92d000a 	push	{r1, r3}
    bd8c:	e52de004 	push	{lr}		; (str lr, [sp, #-4]!)
    bd90:	eb00104e 	bl	fed0 <randomization>
    bd94:	e49de004 	pop	{lr}		; (ldr lr, [sp], #4)
    bd98:	e3520002 	cmp	r2, #2
    bd9c:	e8bd000a 	pop	{r1, r3}
    bda0:	0affff80 	beq	bba8 <D2>
    bda4:	baffff70 	blt	bb6c <D1>
    bda8:	caffff8d 	bgt	bbe4 <D3>
    bdac:	e12fff1e 	bx	lr

0000bdb0 <D12>:
    bdb0:	e1a03004 	mov	r3, r4
    bdb4:	e1a00005 	mov	r0, r5
    bdb8:	e3a00003 	mov	r0, #3
    bdbc:	e92d000a 	push	{r1, r3}
    bdc0:	e52de004 	push	{lr}		; (str lr, [sp, #-4]!)
    bdc4:	eb001041 	bl	fed0 <randomization>
    bdc8:	e49de004 	pop	{lr}		; (ldr lr, [sp], #4)
    bdcc:	e3520002 	cmp	r2, #2
    bdd0:	e8bd000a 	pop	{r1, r3}
    bdd4:	0affff73 	beq	bba8 <D2>
    bdd8:	baffff90 	blt	bc20 <D4>
    bddc:	caffff80 	bgt	bbe4 <D3>
    bde0:	e12fff1e 	bx	lr

0000bde4 <D13>:
    bde4:	e1a03004 	mov	r3, r4
    bde8:	e1a00005 	mov	r0, r5
    bdec:	e3a00003 	mov	r0, #3
    bdf0:	e92d000a 	push	{r1, r3}
    bdf4:	e52de004 	push	{lr}		; (str lr, [sp, #-4]!)
    bdf8:	eb001034 	bl	fed0 <randomization>
    bdfc:	e49de004 	pop	{lr}		; (ldr lr, [sp], #4)
    be00:	e3520002 	cmp	r2, #2
    be04:	e8bd000a 	pop	{r1, r3}
    be08:	0affff57 	beq	bb6c <D1>
    be0c:	baffff83 	blt	bc20 <D4>
    be10:	caffff73 	bgt	bbe4 <D3>
    be14:	e49de004 	pop	{lr}		; (ldr lr, [sp], #4)
    be18:	e12fff1e 	bx	lr

0000be1c <D14>:
    be1c:	e1a03004 	mov	r3, r4
    be20:	e1a00005 	mov	r0, r5
    be24:	e3a00003 	mov	r0, #3
    be28:	e92d000a 	push	{r1, r3}
    be2c:	e52de004 	push	{lr}		; (str lr, [sp, #-4]!)
    be30:	eb001026 	bl	fed0 <randomization>
    be34:	e49de004 	pop	{lr}		; (ldr lr, [sp], #4)
    be38:	e3520002 	cmp	r2, #2
    be3c:	e8bd000a 	pop	{r1, r3}
    be40:	0affff49 	beq	bb6c <D1>
    be44:	baffff75 	blt	bc20 <D4>
    be48:	caffff56 	bgt	bba8 <D2>
    be4c:	e49de004 	pop	{lr}		; (ldr lr, [sp], #4)
    be50:	e12fff1e 	bx	lr

0000be54 <D15>:
    be54:	e1a03004 	mov	r3, r4
    be58:	e1a00005 	mov	r0, r5
    be5c:	e3a00004 	mov	r0, #4
    be60:	e92d000a 	push	{r1, r3}
    be64:	e52de004 	push	{lr}		; (str lr, [sp, #-4]!)
    be68:	eb001018 	bl	fed0 <randomization>
    be6c:	e49de004 	pop	{lr}		; (ldr lr, [sp], #4)
    be70:	e3520001 	cmp	r2, #1
    be74:	e8bd000a 	pop	{r1, r3}
    be78:	0affff3b 	beq	bb6c <D1>
    be7c:	0a000003 	beq	be90 <D15END>

0000be80 <DNOTUP>:
    be80:	e3520003 	cmp	r2, #3
    be84:	0affff65 	beq	bc20 <D4>
    be88:	baffff46 	blt	bba8 <D2>
    be8c:	caffff54 	bgt	bbe4 <D3>

0000be90 <D15END>:
    be90:	e12fff1e 	bx	lr
    be94:	000090c0 	.word	0x000090c0
    be98:	00009084 	.word	0x00009084
    be9c:	3f3f3f3f 	.word	0x3f3f3f3f

0000bea0 <DRAWNAMES>:
    bea0:	e52de004 	push	{lr}		; (str lr, [sp, #-4]!)
    bea4:	e3a09001 	mov	r9, #1
    bea8:	eb00002a 	bl	bf58 <DrawCharNM>
    beac:	eb000041 	bl	bfb8 <DrawCharNI>
    beb0:	eb000058 	bl	c018 <DrawCharNC>
    beb4:	eb00006f 	bl	c078 <DrawCharNH>
    beb8:	eb000086 	bl	c0d8 <DrawCharNA>
    bebc:	eb00009d 	bl	c138 <DrawCharNE>
    bec0:	eb0000ba 	bl	c1b0 <DrawCharNL>
    bec4:	eb0000d1 	bl	c210 <DrawCharND>
    bec8:	eb0000e8 	bl	c270 <DrawCharNA2>
    becc:	eb0000ff 	bl	c2d0 <DrawCharNV>
    bed0:	eb000116 	bl	c330 <DrawCharNI2>
    bed4:	eb00012d 	bl	c390 <DrawCharND2>
    bed8:	eb000144 	bl	c3f0 <DrawCharNP>
    bedc:	eb00015b 	bl	c450 <DrawCharNA3>
    bee0:	eb000172 	bl	c4b0 <DrawCharNS>
    bee4:	eb000189 	bl	c510 <DrawCharNC2>
    bee8:	eb0001a0 	bl	c570 <DrawCharNU>
    beec:	eb0001b7 	bl	c5d0 <DrawCharNA4>
    bef0:	eb0001ce 	bl	c630 <DrawCharNL2>
    bef4:	eb0002ed 	bl	cab0 <DrawCharNM2>
    bef8:	eb000304 	bl	cb10 <DrawCharNA5>
    befc:	eb00031b 	bl	cb70 <DrawCharNR>
    bf00:	eb000332 	bl	cbd0 <DrawCharNC3>
    bf04:	eb000349 	bl	cc30 <DrawCharNU2>
    bf08:	eb000360 	bl	cc90 <DrawCharNS3>
    bf0c:	eb000377 	bl	ccf0 <DrawCharNS4>
    bf10:	eb00038e 	bl	cd50 <DrawCharNT>
    bf14:	eb0003a5 	bl	cdb0 <DrawCharNE5>
    bf18:	eb0003bc 	bl	ce10 <DrawCharNW>
    bf1c:	eb0003d3 	bl	ce70 <DrawCharNA6>
    bf20:	eb0003ea 	bl	ced0 <DrawCharNR2>
    bf24:	eb000401 	bl	cf30 <DrawCharNT2>
    bf28:	eb0001d8 	bl	c690 <DrawCharNJ>
    bf2c:	eb0001ef 	bl	c6f0 <DrawCharNO>
    bf30:	eb000206 	bl	c750 <DrawCharNE2>
    bf34:	eb00021d 	bl	c7b0 <DrawCharNL3>
    bf38:	eb000234 	bl	c810 <DrawCharNN>
    bf3c:	eb00024b 	bl	c870 <DrawCharNI3>
    bf40:	eb000262 	bl	c8d0 <DrawCharNE3>
    bf44:	eb000279 	bl	c930 <DrawCharNL4>
    bf48:	eb000290 	bl	c990 <DrawCharNS2>
    bf4c:	eb0002a7 	bl	c9f0 <DrawCharNE4>
    bf50:	eb0002be 	bl	ca50 <DrawCharNN2>
    bf54:	e49df004 	pop	{pc}		; (ldr pc, [sp], #4)

0000bf58 <DrawCharNM>:
    bf58:	e92d41f0 	push	{r4, r5, r6, r7, r8, lr}
    bf5c:	e59f4214 	ldr	r4, [pc, #532]	; c178 <rowLoop5$+0x20>
    bf60:	e3a0004d 	mov	r0, #77	; 0x4d
    bf64:	e0844200 	add	r4, r4, r0, lsl #4
    bf68:	e3a06fb5 	mov	r6, #724	; 0x2d4

0000bf6c <charLoop$>:
    bf6c:	e3a05019 	mov	r5, #25
    bf70:	e3a08001 	mov	r8, #1
    bf74:	e4d47001 	ldrb	r7, [r4], #1

0000bf78 <rowLoop$>:
    bf78:	e1170008 	tst	r7, r8
    bf7c:	0a000005 	beq	bf98 <noPixel$>
    bf80:	e1a00005 	mov	r0, r5
    bf84:	e1a01006 	mov	r1, r6
    bf88:	e3590000 	cmp	r9, #0
    bf8c:	059f21e8 	ldreq	r2, [pc, #488]	; c17c <rowLoop5$+0x24>
    bf90:	159f21e8 	ldrne	r2, [pc, #488]	; c180 <rowLoop5$+0x28>
    bf94:	eb00101d 	bl	10010 <DrawPixel>

0000bf98 <noPixel$>:
    bf98:	e2855001 	add	r5, r5, #1
    bf9c:	e1a08088 	lsl	r8, r8, #1
    bfa0:	e3180c01 	tst	r8, #256	; 0x100
    bfa4:	0afffff3 	beq	bf78 <rowLoop$>
    bfa8:	e2866001 	add	r6, r6, #1
    bfac:	e314000f 	tst	r4, #15
    bfb0:	1affffed 	bne	bf6c <charLoop$>
    bfb4:	e8bd81f0 	pop	{r4, r5, r6, r7, r8, pc}

0000bfb8 <DrawCharNI>:
    bfb8:	e92d41f0 	push	{r4, r5, r6, r7, r8, lr}
    bfbc:	e59f41b4 	ldr	r4, [pc, #436]	; c178 <rowLoop5$+0x20>
    bfc0:	e3a00049 	mov	r0, #73	; 0x49
    bfc4:	e0844200 	add	r4, r4, r0, lsl #4
    bfc8:	e3a06fb5 	mov	r6, #724	; 0x2d4

0000bfcc <charLoop1$>:
    bfcc:	e3a05021 	mov	r5, #33	; 0x21
    bfd0:	e3a08001 	mov	r8, #1
    bfd4:	e4d47001 	ldrb	r7, [r4], #1

0000bfd8 <rowLoop1$>:
    bfd8:	e1170008 	tst	r7, r8
    bfdc:	0a000005 	beq	bff8 <noPixel1$>
    bfe0:	e1a00005 	mov	r0, r5
    bfe4:	e1a01006 	mov	r1, r6
    bfe8:	e3590000 	cmp	r9, #0
    bfec:	059f2188 	ldreq	r2, [pc, #392]	; c17c <rowLoop5$+0x24>
    bff0:	159f2188 	ldrne	r2, [pc, #392]	; c180 <rowLoop5$+0x28>
    bff4:	eb001005 	bl	10010 <DrawPixel>

0000bff8 <noPixel1$>:
    bff8:	e2855001 	add	r5, r5, #1
    bffc:	e1a08088 	lsl	r8, r8, #1
    c000:	e3180c01 	tst	r8, #256	; 0x100
    c004:	0afffff3 	beq	bfd8 <rowLoop1$>
    c008:	e2866001 	add	r6, r6, #1
    c00c:	e314000f 	tst	r4, #15
    c010:	1affffed 	bne	bfcc <charLoop1$>
    c014:	e8bd81f0 	pop	{r4, r5, r6, r7, r8, pc}

0000c018 <DrawCharNC>:
    c018:	e92d41f0 	push	{r4, r5, r6, r7, r8, lr}
    c01c:	e59f4154 	ldr	r4, [pc, #340]	; c178 <rowLoop5$+0x20>
    c020:	e3a00043 	mov	r0, #67	; 0x43
    c024:	e0844200 	add	r4, r4, r0, lsl #4
    c028:	e3a06fb5 	mov	r6, #724	; 0x2d4

0000c02c <charLoop2$>:
    c02c:	e3a05029 	mov	r5, #41	; 0x29
    c030:	e3a08001 	mov	r8, #1
    c034:	e4d47001 	ldrb	r7, [r4], #1

0000c038 <rowLoop2$>:
    c038:	e1170008 	tst	r7, r8
    c03c:	0a000005 	beq	c058 <noPixel2$>
    c040:	e1a00005 	mov	r0, r5
    c044:	e1a01006 	mov	r1, r6
    c048:	e3590000 	cmp	r9, #0
    c04c:	059f2128 	ldreq	r2, [pc, #296]	; c17c <rowLoop5$+0x24>
    c050:	159f2128 	ldrne	r2, [pc, #296]	; c180 <rowLoop5$+0x28>
    c054:	eb000fed 	bl	10010 <DrawPixel>

0000c058 <noPixel2$>:
    c058:	e2855001 	add	r5, r5, #1
    c05c:	e1a08088 	lsl	r8, r8, #1
    c060:	e3180c01 	tst	r8, #256	; 0x100
    c064:	0afffff3 	beq	c038 <rowLoop2$>
    c068:	e2866001 	add	r6, r6, #1
    c06c:	e314000f 	tst	r4, #15
    c070:	1affffed 	bne	c02c <charLoop2$>
    c074:	e8bd81f0 	pop	{r4, r5, r6, r7, r8, pc}

0000c078 <DrawCharNH>:
    c078:	e92d41f0 	push	{r4, r5, r6, r7, r8, lr}
    c07c:	e59f40f4 	ldr	r4, [pc, #244]	; c178 <rowLoop5$+0x20>
    c080:	e3a00048 	mov	r0, #72	; 0x48
    c084:	e0844200 	add	r4, r4, r0, lsl #4
    c088:	e3a06fb5 	mov	r6, #724	; 0x2d4

0000c08c <charLoop3$>:
    c08c:	e3a05031 	mov	r5, #49	; 0x31
    c090:	e3a08001 	mov	r8, #1
    c094:	e4d47001 	ldrb	r7, [r4], #1

0000c098 <rowLoop3$>:
    c098:	e1170008 	tst	r7, r8
    c09c:	0a000005 	beq	c0b8 <noPixel3$>
    c0a0:	e1a00005 	mov	r0, r5
    c0a4:	e1a01006 	mov	r1, r6
    c0a8:	e3590000 	cmp	r9, #0
    c0ac:	059f20c8 	ldreq	r2, [pc, #200]	; c17c <rowLoop5$+0x24>
    c0b0:	159f20c8 	ldrne	r2, [pc, #200]	; c180 <rowLoop5$+0x28>
    c0b4:	eb000fd5 	bl	10010 <DrawPixel>

0000c0b8 <noPixel3$>:
    c0b8:	e2855001 	add	r5, r5, #1
    c0bc:	e1a08088 	lsl	r8, r8, #1
    c0c0:	e3180c01 	tst	r8, #256	; 0x100
    c0c4:	0afffff3 	beq	c098 <rowLoop3$>
    c0c8:	e2866001 	add	r6, r6, #1
    c0cc:	e314000f 	tst	r4, #15
    c0d0:	1affffed 	bne	c08c <charLoop3$>
    c0d4:	e8bd81f0 	pop	{r4, r5, r6, r7, r8, pc}

0000c0d8 <DrawCharNA>:
    c0d8:	e92d41f0 	push	{r4, r5, r6, r7, r8, lr}
    c0dc:	e59f4094 	ldr	r4, [pc, #148]	; c178 <rowLoop5$+0x20>
    c0e0:	e3a00041 	mov	r0, #65	; 0x41
    c0e4:	e0844200 	add	r4, r4, r0, lsl #4
    c0e8:	e3a06fb5 	mov	r6, #724	; 0x2d4

0000c0ec <charLoop4$>:
    c0ec:	e3a05039 	mov	r5, #57	; 0x39
    c0f0:	e3a08001 	mov	r8, #1
    c0f4:	e4d47001 	ldrb	r7, [r4], #1

0000c0f8 <rowLoop4$>:
    c0f8:	e1170008 	tst	r7, r8
    c0fc:	0a000005 	beq	c118 <noPixel4$>
    c100:	e1a00005 	mov	r0, r5
    c104:	e1a01006 	mov	r1, r6
    c108:	e3590000 	cmp	r9, #0
    c10c:	059f2068 	ldreq	r2, [pc, #104]	; c17c <rowLoop5$+0x24>
    c110:	159f2068 	ldrne	r2, [pc, #104]	; c180 <rowLoop5$+0x28>
    c114:	eb000fbd 	bl	10010 <DrawPixel>

0000c118 <noPixel4$>:
    c118:	e2855001 	add	r5, r5, #1
    c11c:	e1a08088 	lsl	r8, r8, #1
    c120:	e3180c01 	tst	r8, #256	; 0x100
    c124:	0afffff3 	beq	c0f8 <rowLoop4$>
    c128:	e2866001 	add	r6, r6, #1
    c12c:	e314000f 	tst	r4, #15
    c130:	1affffed 	bne	c0ec <charLoop4$>
    c134:	e8bd81f0 	pop	{r4, r5, r6, r7, r8, pc}

0000c138 <DrawCharNE>:
    c138:	e92d41f0 	push	{r4, r5, r6, r7, r8, lr}
    c13c:	e59f4034 	ldr	r4, [pc, #52]	; c178 <rowLoop5$+0x20>
    c140:	e3a00045 	mov	r0, #69	; 0x45
    c144:	e0844200 	add	r4, r4, r0, lsl #4
    c148:	e3a06fb5 	mov	r6, #724	; 0x2d4

0000c14c <charLoop5$>:
    c14c:	e3a05041 	mov	r5, #65	; 0x41
    c150:	e3a08001 	mov	r8, #1
    c154:	e4d47001 	ldrb	r7, [r4], #1

0000c158 <rowLoop5$>:
    c158:	e1170008 	tst	r7, r8
    c15c:	0a00000b 	beq	c190 <noPixel5$>
    c160:	e1a00005 	mov	r0, r5
    c164:	e1a01006 	mov	r1, r6
    c168:	e3590000 	cmp	r9, #0
    c16c:	059f2008 	ldreq	r2, [pc, #8]	; c17c <rowLoop5$+0x24>
    c170:	159f2008 	ldrne	r2, [pc, #8]	; c180 <rowLoop5$+0x28>
    c174:	eb000fa5 	bl	10010 <DrawPixel>
    c178:	00009100 	.word	0x00009100
    c17c:	0000ffff 	.word	0x0000ffff
    c180:	0000f920 	.word	0x0000f920
    c184:	e320f000 	nop	{0}
    c188:	e320f000 	nop	{0}
    c18c:	e320f000 	nop	{0}

0000c190 <noPixel5$>:
    c190:	e2855001 	add	r5, r5, #1
    c194:	e1a08088 	lsl	r8, r8, #1
    c198:	e3180c01 	tst	r8, #256	; 0x100
    c19c:	0affffed 	beq	c158 <rowLoop5$>
    c1a0:	e2866001 	add	r6, r6, #1
    c1a4:	e314000f 	tst	r4, #15
    c1a8:	1affffe7 	bne	c14c <charLoop5$>
    c1ac:	e8bd81f0 	pop	{r4, r5, r6, r7, r8, pc}

0000c1b0 <DrawCharNL>:
    c1b0:	e92d41f0 	push	{r4, r5, r6, r7, r8, lr}
    c1b4:	e59f4dd4 	ldr	r4, [pc, #3540]	; cf90 <noPixel42$+0x20>
    c1b8:	e3a0004c 	mov	r0, #76	; 0x4c
    c1bc:	e0844200 	add	r4, r4, r0, lsl #4
    c1c0:	e3a06fb5 	mov	r6, #724	; 0x2d4

0000c1c4 <charLoop6$>:
    c1c4:	e3a05049 	mov	r5, #73	; 0x49
    c1c8:	e3a08001 	mov	r8, #1
    c1cc:	e4d47001 	ldrb	r7, [r4], #1

0000c1d0 <rowLoop6$>:
    c1d0:	e1170008 	tst	r7, r8
    c1d4:	0a000005 	beq	c1f0 <noPixel6$>
    c1d8:	e1a00005 	mov	r0, r5
    c1dc:	e1a01006 	mov	r1, r6
    c1e0:	e3590000 	cmp	r9, #0
    c1e4:	059f2da8 	ldreq	r2, [pc, #3496]	; cf94 <noPixel42$+0x24>
    c1e8:	159f2da8 	ldrne	r2, [pc, #3496]	; cf98 <noPixel42$+0x28>
    c1ec:	eb000f87 	bl	10010 <DrawPixel>

0000c1f0 <noPixel6$>:
    c1f0:	e2855001 	add	r5, r5, #1
    c1f4:	e1a08088 	lsl	r8, r8, #1
    c1f8:	e3180c01 	tst	r8, #256	; 0x100
    c1fc:	0afffff3 	beq	c1d0 <rowLoop6$>
    c200:	e2866001 	add	r6, r6, #1
    c204:	e314000f 	tst	r4, #15
    c208:	1affffed 	bne	c1c4 <charLoop6$>
    c20c:	e8bd81f0 	pop	{r4, r5, r6, r7, r8, pc}

0000c210 <DrawCharND>:
    c210:	e92d41f0 	push	{r4, r5, r6, r7, r8, lr}
    c214:	e59f4d74 	ldr	r4, [pc, #3444]	; cf90 <noPixel42$+0x20>
    c218:	e3a00044 	mov	r0, #68	; 0x44
    c21c:	e0844200 	add	r4, r4, r0, lsl #4
    c220:	e3a06fb5 	mov	r6, #724	; 0x2d4

0000c224 <charLoop7$>:
    c224:	e3a05059 	mov	r5, #89	; 0x59
    c228:	e3a08001 	mov	r8, #1
    c22c:	e4d47001 	ldrb	r7, [r4], #1

0000c230 <rowLoop7$>:
    c230:	e1170008 	tst	r7, r8
    c234:	0a000005 	beq	c250 <noPixel7$>
    c238:	e1a00005 	mov	r0, r5
    c23c:	e1a01006 	mov	r1, r6
    c240:	e3590000 	cmp	r9, #0
    c244:	059f2d48 	ldreq	r2, [pc, #3400]	; cf94 <noPixel42$+0x24>
    c248:	159f2d48 	ldrne	r2, [pc, #3400]	; cf98 <noPixel42$+0x28>
    c24c:	eb000f6f 	bl	10010 <DrawPixel>

0000c250 <noPixel7$>:
    c250:	e2855001 	add	r5, r5, #1
    c254:	e1a08088 	lsl	r8, r8, #1
    c258:	e3180c01 	tst	r8, #256	; 0x100
    c25c:	0afffff3 	beq	c230 <rowLoop7$>
    c260:	e2866001 	add	r6, r6, #1
    c264:	e314000f 	tst	r4, #15
    c268:	1affffed 	bne	c224 <charLoop7$>
    c26c:	e8bd81f0 	pop	{r4, r5, r6, r7, r8, pc}

0000c270 <DrawCharNA2>:
    c270:	e92d41f0 	push	{r4, r5, r6, r7, r8, lr}
    c274:	e59f4d14 	ldr	r4, [pc, #3348]	; cf90 <noPixel42$+0x20>
    c278:	e3a00041 	mov	r0, #65	; 0x41
    c27c:	e0844200 	add	r4, r4, r0, lsl #4
    c280:	e3a06fb5 	mov	r6, #724	; 0x2d4

0000c284 <charLoop8$>:
    c284:	e3a05061 	mov	r5, #97	; 0x61
    c288:	e3a08001 	mov	r8, #1
    c28c:	e4d47001 	ldrb	r7, [r4], #1

0000c290 <rowLoop8$>:
    c290:	e1170008 	tst	r7, r8
    c294:	0a000005 	beq	c2b0 <noPixel8$>
    c298:	e1a00005 	mov	r0, r5
    c29c:	e1a01006 	mov	r1, r6
    c2a0:	e3590000 	cmp	r9, #0
    c2a4:	059f2ce8 	ldreq	r2, [pc, #3304]	; cf94 <noPixel42$+0x24>
    c2a8:	159f2ce8 	ldrne	r2, [pc, #3304]	; cf98 <noPixel42$+0x28>
    c2ac:	eb000f57 	bl	10010 <DrawPixel>

0000c2b0 <noPixel8$>:
    c2b0:	e2855001 	add	r5, r5, #1
    c2b4:	e1a08088 	lsl	r8, r8, #1
    c2b8:	e3180c01 	tst	r8, #256	; 0x100
    c2bc:	0afffff3 	beq	c290 <rowLoop8$>
    c2c0:	e2866001 	add	r6, r6, #1
    c2c4:	e314000f 	tst	r4, #15
    c2c8:	1affffed 	bne	c284 <charLoop8$>
    c2cc:	e8bd81f0 	pop	{r4, r5, r6, r7, r8, pc}

0000c2d0 <DrawCharNV>:
    c2d0:	e92d41f0 	push	{r4, r5, r6, r7, r8, lr}
    c2d4:	e59f4cb4 	ldr	r4, [pc, #3252]	; cf90 <noPixel42$+0x20>
    c2d8:	e3a00056 	mov	r0, #86	; 0x56
    c2dc:	e0844200 	add	r4, r4, r0, lsl #4
    c2e0:	e3a06fb5 	mov	r6, #724	; 0x2d4

0000c2e4 <charLoop9$>:
    c2e4:	e3a05069 	mov	r5, #105	; 0x69
    c2e8:	e3a08001 	mov	r8, #1
    c2ec:	e4d47001 	ldrb	r7, [r4], #1

0000c2f0 <rowLoop9$>:
    c2f0:	e1170008 	tst	r7, r8
    c2f4:	0a000005 	beq	c310 <noPixel9$>
    c2f8:	e1a00005 	mov	r0, r5
    c2fc:	e1a01006 	mov	r1, r6
    c300:	e3590000 	cmp	r9, #0
    c304:	059f2c88 	ldreq	r2, [pc, #3208]	; cf94 <noPixel42$+0x24>
    c308:	159f2c88 	ldrne	r2, [pc, #3208]	; cf98 <noPixel42$+0x28>
    c30c:	eb000f3f 	bl	10010 <DrawPixel>

0000c310 <noPixel9$>:
    c310:	e2855001 	add	r5, r5, #1
    c314:	e1a08088 	lsl	r8, r8, #1
    c318:	e3180c01 	tst	r8, #256	; 0x100
    c31c:	0afffff3 	beq	c2f0 <rowLoop9$>
    c320:	e2866001 	add	r6, r6, #1
    c324:	e314000f 	tst	r4, #15
    c328:	1affffed 	bne	c2e4 <charLoop9$>
    c32c:	e8bd81f0 	pop	{r4, r5, r6, r7, r8, pc}

0000c330 <DrawCharNI2>:
    c330:	e92d41f0 	push	{r4, r5, r6, r7, r8, lr}
    c334:	e59f4c54 	ldr	r4, [pc, #3156]	; cf90 <noPixel42$+0x20>
    c338:	e3a00049 	mov	r0, #73	; 0x49
    c33c:	e0844200 	add	r4, r4, r0, lsl #4
    c340:	e3a06fb5 	mov	r6, #724	; 0x2d4

0000c344 <charLoop10$>:
    c344:	e3a05071 	mov	r5, #113	; 0x71
    c348:	e3a08001 	mov	r8, #1
    c34c:	e4d47001 	ldrb	r7, [r4], #1

0000c350 <rowLoop10$>:
    c350:	e1170008 	tst	r7, r8
    c354:	0a000005 	beq	c370 <noPixel10$>
    c358:	e1a00005 	mov	r0, r5
    c35c:	e1a01006 	mov	r1, r6
    c360:	e3590000 	cmp	r9, #0
    c364:	059f2c28 	ldreq	r2, [pc, #3112]	; cf94 <noPixel42$+0x24>
    c368:	159f2c28 	ldrne	r2, [pc, #3112]	; cf98 <noPixel42$+0x28>
    c36c:	eb000f27 	bl	10010 <DrawPixel>

0000c370 <noPixel10$>:
    c370:	e2855001 	add	r5, r5, #1
    c374:	e1a08088 	lsl	r8, r8, #1
    c378:	e3180c01 	tst	r8, #256	; 0x100
    c37c:	0afffff3 	beq	c350 <rowLoop10$>
    c380:	e2866001 	add	r6, r6, #1
    c384:	e314000f 	tst	r4, #15
    c388:	1affffed 	bne	c344 <charLoop10$>
    c38c:	e8bd81f0 	pop	{r4, r5, r6, r7, r8, pc}

0000c390 <DrawCharND2>:
    c390:	e92d41f0 	push	{r4, r5, r6, r7, r8, lr}
    c394:	e59f4bf4 	ldr	r4, [pc, #3060]	; cf90 <noPixel42$+0x20>
    c398:	e3a00044 	mov	r0, #68	; 0x44
    c39c:	e0844200 	add	r4, r4, r0, lsl #4
    c3a0:	e3a06fb5 	mov	r6, #724	; 0x2d4

0000c3a4 <charLoop11$>:
    c3a4:	e3a05079 	mov	r5, #121	; 0x79
    c3a8:	e3a08001 	mov	r8, #1
    c3ac:	e4d47001 	ldrb	r7, [r4], #1

0000c3b0 <rowLoop11$>:
    c3b0:	e1170008 	tst	r7, r8
    c3b4:	0a000005 	beq	c3d0 <noPixel11$>
    c3b8:	e1a00005 	mov	r0, r5
    c3bc:	e1a01006 	mov	r1, r6
    c3c0:	e3590000 	cmp	r9, #0
    c3c4:	059f2bc8 	ldreq	r2, [pc, #3016]	; cf94 <noPixel42$+0x24>
    c3c8:	159f2bc8 	ldrne	r2, [pc, #3016]	; cf98 <noPixel42$+0x28>
    c3cc:	eb000f0f 	bl	10010 <DrawPixel>

0000c3d0 <noPixel11$>:
    c3d0:	e2855001 	add	r5, r5, #1
    c3d4:	e1a08088 	lsl	r8, r8, #1
    c3d8:	e3180c01 	tst	r8, #256	; 0x100
    c3dc:	0afffff3 	beq	c3b0 <rowLoop11$>
    c3e0:	e2866001 	add	r6, r6, #1
    c3e4:	e314000f 	tst	r4, #15
    c3e8:	1affffed 	bne	c3a4 <charLoop11$>
    c3ec:	e8bd81f0 	pop	{r4, r5, r6, r7, r8, pc}

0000c3f0 <DrawCharNP>:
    c3f0:	e92d41f0 	push	{r4, r5, r6, r7, r8, lr}
    c3f4:	e59f4b94 	ldr	r4, [pc, #2964]	; cf90 <noPixel42$+0x20>
    c3f8:	e3a00050 	mov	r0, #80	; 0x50
    c3fc:	e0844200 	add	r4, r4, r0, lsl #4
    c400:	e3a06fb5 	mov	r6, #724	; 0x2d4

0000c404 <charLoop12$>:
    c404:	e3a05089 	mov	r5, #137	; 0x89
    c408:	e3a08001 	mov	r8, #1
    c40c:	e4d47001 	ldrb	r7, [r4], #1

0000c410 <rowLoop12$>:
    c410:	e1170008 	tst	r7, r8
    c414:	0a000005 	beq	c430 <noPixel12$>
    c418:	e1a00005 	mov	r0, r5
    c41c:	e1a01006 	mov	r1, r6
    c420:	e3590000 	cmp	r9, #0
    c424:	059f2b68 	ldreq	r2, [pc, #2920]	; cf94 <noPixel42$+0x24>
    c428:	159f2b68 	ldrne	r2, [pc, #2920]	; cf98 <noPixel42$+0x28>
    c42c:	eb000ef7 	bl	10010 <DrawPixel>

0000c430 <noPixel12$>:
    c430:	e2855001 	add	r5, r5, #1
    c434:	e1a08088 	lsl	r8, r8, #1
    c438:	e3180c01 	tst	r8, #256	; 0x100
    c43c:	0afffff3 	beq	c410 <rowLoop12$>
    c440:	e2866001 	add	r6, r6, #1
    c444:	e314000f 	tst	r4, #15
    c448:	1affffed 	bne	c404 <charLoop12$>
    c44c:	e8bd81f0 	pop	{r4, r5, r6, r7, r8, pc}

0000c450 <DrawCharNA3>:
    c450:	e92d41f0 	push	{r4, r5, r6, r7, r8, lr}
    c454:	e59f4b34 	ldr	r4, [pc, #2868]	; cf90 <noPixel42$+0x20>
    c458:	e3a00041 	mov	r0, #65	; 0x41
    c45c:	e0844200 	add	r4, r4, r0, lsl #4
    c460:	e3a06fb5 	mov	r6, #724	; 0x2d4

0000c464 <charLoop13$>:
    c464:	e3a05091 	mov	r5, #145	; 0x91
    c468:	e3a08001 	mov	r8, #1
    c46c:	e4d47001 	ldrb	r7, [r4], #1

0000c470 <rowLoop13$>:
    c470:	e1170008 	tst	r7, r8
    c474:	0a000005 	beq	c490 <noPixel13$>
    c478:	e1a00005 	mov	r0, r5
    c47c:	e1a01006 	mov	r1, r6
    c480:	e3590000 	cmp	r9, #0
    c484:	059f2b08 	ldreq	r2, [pc, #2824]	; cf94 <noPixel42$+0x24>
    c488:	159f2b08 	ldrne	r2, [pc, #2824]	; cf98 <noPixel42$+0x28>
    c48c:	eb000edf 	bl	10010 <DrawPixel>

0000c490 <noPixel13$>:
    c490:	e2855001 	add	r5, r5, #1
    c494:	e1a08088 	lsl	r8, r8, #1
    c498:	e3180c01 	tst	r8, #256	; 0x100
    c49c:	0afffff3 	beq	c470 <rowLoop13$>
    c4a0:	e2866001 	add	r6, r6, #1
    c4a4:	e314000f 	tst	r4, #15
    c4a8:	1affffed 	bne	c464 <charLoop13$>
    c4ac:	e8bd81f0 	pop	{r4, r5, r6, r7, r8, pc}

0000c4b0 <DrawCharNS>:
    c4b0:	e92d41f0 	push	{r4, r5, r6, r7, r8, lr}
    c4b4:	e59f4ad4 	ldr	r4, [pc, #2772]	; cf90 <noPixel42$+0x20>
    c4b8:	e3a00053 	mov	r0, #83	; 0x53
    c4bc:	e0844200 	add	r4, r4, r0, lsl #4
    c4c0:	e3a06fb5 	mov	r6, #724	; 0x2d4

0000c4c4 <charLoop14$>:
    c4c4:	e3a05099 	mov	r5, #153	; 0x99
    c4c8:	e3a08001 	mov	r8, #1
    c4cc:	e4d47001 	ldrb	r7, [r4], #1

0000c4d0 <rowLoop14$>:
    c4d0:	e1170008 	tst	r7, r8
    c4d4:	0a000005 	beq	c4f0 <noPixel14$>
    c4d8:	e1a00005 	mov	r0, r5
    c4dc:	e1a01006 	mov	r1, r6
    c4e0:	e3590000 	cmp	r9, #0
    c4e4:	059f2aa8 	ldreq	r2, [pc, #2728]	; cf94 <noPixel42$+0x24>
    c4e8:	159f2aa8 	ldrne	r2, [pc, #2728]	; cf98 <noPixel42$+0x28>
    c4ec:	eb000ec7 	bl	10010 <DrawPixel>

0000c4f0 <noPixel14$>:
    c4f0:	e2855001 	add	r5, r5, #1
    c4f4:	e1a08088 	lsl	r8, r8, #1
    c4f8:	e3180c01 	tst	r8, #256	; 0x100
    c4fc:	0afffff3 	beq	c4d0 <rowLoop14$>
    c500:	e2866001 	add	r6, r6, #1
    c504:	e314000f 	tst	r4, #15
    c508:	1affffed 	bne	c4c4 <charLoop14$>
    c50c:	e8bd81f0 	pop	{r4, r5, r6, r7, r8, pc}

0000c510 <DrawCharNC2>:
    c510:	e92d41f0 	push	{r4, r5, r6, r7, r8, lr}
    c514:	e59f4a74 	ldr	r4, [pc, #2676]	; cf90 <noPixel42$+0x20>
    c518:	e3a00043 	mov	r0, #67	; 0x43
    c51c:	e0844200 	add	r4, r4, r0, lsl #4
    c520:	e3a06fb5 	mov	r6, #724	; 0x2d4

0000c524 <charLoop15$>:
    c524:	e3a050a1 	mov	r5, #161	; 0xa1
    c528:	e3a08001 	mov	r8, #1
    c52c:	e4d47001 	ldrb	r7, [r4], #1

0000c530 <rowLoop15$>:
    c530:	e1170008 	tst	r7, r8
    c534:	0a000005 	beq	c550 <noPixel15$>
    c538:	e1a00005 	mov	r0, r5
    c53c:	e1a01006 	mov	r1, r6
    c540:	e3590000 	cmp	r9, #0
    c544:	059f2a48 	ldreq	r2, [pc, #2632]	; cf94 <noPixel42$+0x24>
    c548:	159f2a48 	ldrne	r2, [pc, #2632]	; cf98 <noPixel42$+0x28>
    c54c:	eb000eaf 	bl	10010 <DrawPixel>

0000c550 <noPixel15$>:
    c550:	e2855001 	add	r5, r5, #1
    c554:	e1a08088 	lsl	r8, r8, #1
    c558:	e3180c01 	tst	r8, #256	; 0x100
    c55c:	0afffff3 	beq	c530 <rowLoop15$>
    c560:	e2866001 	add	r6, r6, #1
    c564:	e314000f 	tst	r4, #15
    c568:	1affffed 	bne	c524 <charLoop15$>
    c56c:	e8bd81f0 	pop	{r4, r5, r6, r7, r8, pc}

0000c570 <DrawCharNU>:
    c570:	e92d41f0 	push	{r4, r5, r6, r7, r8, lr}
    c574:	e59f4a14 	ldr	r4, [pc, #2580]	; cf90 <noPixel42$+0x20>
    c578:	e3a00055 	mov	r0, #85	; 0x55
    c57c:	e0844200 	add	r4, r4, r0, lsl #4
    c580:	e3a06fb5 	mov	r6, #724	; 0x2d4

0000c584 <charLoop16$>:
    c584:	e3a050a9 	mov	r5, #169	; 0xa9
    c588:	e3a08001 	mov	r8, #1
    c58c:	e4d47001 	ldrb	r7, [r4], #1

0000c590 <rowLoop16$>:
    c590:	e1170008 	tst	r7, r8
    c594:	0a000005 	beq	c5b0 <noPixel16$>
    c598:	e1a00005 	mov	r0, r5
    c59c:	e1a01006 	mov	r1, r6
    c5a0:	e3590000 	cmp	r9, #0
    c5a4:	059f29e8 	ldreq	r2, [pc, #2536]	; cf94 <noPixel42$+0x24>
    c5a8:	159f29e8 	ldrne	r2, [pc, #2536]	; cf98 <noPixel42$+0x28>
    c5ac:	eb000e97 	bl	10010 <DrawPixel>

0000c5b0 <noPixel16$>:
    c5b0:	e2855001 	add	r5, r5, #1
    c5b4:	e1a08088 	lsl	r8, r8, #1
    c5b8:	e3180c01 	tst	r8, #256	; 0x100
    c5bc:	0afffff3 	beq	c590 <rowLoop16$>
    c5c0:	e2866001 	add	r6, r6, #1
    c5c4:	e314000f 	tst	r4, #15
    c5c8:	1affffed 	bne	c584 <charLoop16$>
    c5cc:	e8bd81f0 	pop	{r4, r5, r6, r7, r8, pc}

0000c5d0 <DrawCharNA4>:
    c5d0:	e92d41f0 	push	{r4, r5, r6, r7, r8, lr}
    c5d4:	e59f49b4 	ldr	r4, [pc, #2484]	; cf90 <noPixel42$+0x20>
    c5d8:	e3a00041 	mov	r0, #65	; 0x41
    c5dc:	e0844200 	add	r4, r4, r0, lsl #4
    c5e0:	e3a06fb5 	mov	r6, #724	; 0x2d4

0000c5e4 <charLoop17$>:
    c5e4:	e3a050b1 	mov	r5, #177	; 0xb1
    c5e8:	e3a08001 	mov	r8, #1
    c5ec:	e4d47001 	ldrb	r7, [r4], #1

0000c5f0 <rowLoop17$>:
    c5f0:	e1170008 	tst	r7, r8
    c5f4:	0a000005 	beq	c610 <noPixel17$>
    c5f8:	e1a00005 	mov	r0, r5
    c5fc:	e1a01006 	mov	r1, r6
    c600:	e3590000 	cmp	r9, #0
    c604:	059f2988 	ldreq	r2, [pc, #2440]	; cf94 <noPixel42$+0x24>
    c608:	159f2988 	ldrne	r2, [pc, #2440]	; cf98 <noPixel42$+0x28>
    c60c:	eb000e7f 	bl	10010 <DrawPixel>

0000c610 <noPixel17$>:
    c610:	e2855001 	add	r5, r5, #1
    c614:	e1a08088 	lsl	r8, r8, #1
    c618:	e3180c01 	tst	r8, #256	; 0x100
    c61c:	0afffff3 	beq	c5f0 <rowLoop17$>
    c620:	e2866001 	add	r6, r6, #1
    c624:	e314000f 	tst	r4, #15
    c628:	1affffed 	bne	c5e4 <charLoop17$>
    c62c:	e8bd81f0 	pop	{r4, r5, r6, r7, r8, pc}

0000c630 <DrawCharNL2>:
    c630:	e92d41f0 	push	{r4, r5, r6, r7, r8, lr}
    c634:	e59f4954 	ldr	r4, [pc, #2388]	; cf90 <noPixel42$+0x20>
    c638:	e3a0004c 	mov	r0, #76	; 0x4c
    c63c:	e0844200 	add	r4, r4, r0, lsl #4
    c640:	e3a06fb5 	mov	r6, #724	; 0x2d4

0000c644 <charLoop18$>:
    c644:	e3a050b9 	mov	r5, #185	; 0xb9
    c648:	e3a08001 	mov	r8, #1
    c64c:	e4d47001 	ldrb	r7, [r4], #1

0000c650 <rowLoop18$>:
    c650:	e1170008 	tst	r7, r8
    c654:	0a000005 	beq	c670 <noPixel18$>
    c658:	e1a00005 	mov	r0, r5
    c65c:	e1a01006 	mov	r1, r6
    c660:	e3590000 	cmp	r9, #0
    c664:	059f2928 	ldreq	r2, [pc, #2344]	; cf94 <noPixel42$+0x24>
    c668:	159f2928 	ldrne	r2, [pc, #2344]	; cf98 <noPixel42$+0x28>
    c66c:	eb000e67 	bl	10010 <DrawPixel>

0000c670 <noPixel18$>:
    c670:	e2855001 	add	r5, r5, #1
    c674:	e1a08088 	lsl	r8, r8, #1
    c678:	e3180c01 	tst	r8, #256	; 0x100
    c67c:	0afffff3 	beq	c650 <rowLoop18$>
    c680:	e2866001 	add	r6, r6, #1
    c684:	e314000f 	tst	r4, #15
    c688:	1affffed 	bne	c644 <charLoop18$>
    c68c:	e8bd81f0 	pop	{r4, r5, r6, r7, r8, pc}

0000c690 <DrawCharNJ>:
    c690:	e92d41f0 	push	{r4, r5, r6, r7, r8, lr}
    c694:	e59f48f4 	ldr	r4, [pc, #2292]	; cf90 <noPixel42$+0x20>
    c698:	e3a0004a 	mov	r0, #74	; 0x4a
    c69c:	e0844200 	add	r4, r4, r0, lsl #4
    c6a0:	e3a06d0b 	mov	r6, #704	; 0x2c0

0000c6a4 <charLoop19$>:
    c6a4:	e3a05019 	mov	r5, #25
    c6a8:	e3a08001 	mov	r8, #1
    c6ac:	e4d47001 	ldrb	r7, [r4], #1

0000c6b0 <rowLoop19$>:
    c6b0:	e1170008 	tst	r7, r8
    c6b4:	0a000005 	beq	c6d0 <noPixel19$>
    c6b8:	e1a00005 	mov	r0, r5
    c6bc:	e1a01006 	mov	r1, r6
    c6c0:	e3590000 	cmp	r9, #0
    c6c4:	059f28c8 	ldreq	r2, [pc, #2248]	; cf94 <noPixel42$+0x24>
    c6c8:	159f28c8 	ldrne	r2, [pc, #2248]	; cf98 <noPixel42$+0x28>
    c6cc:	eb000e4f 	bl	10010 <DrawPixel>

0000c6d0 <noPixel19$>:
    c6d0:	e2855001 	add	r5, r5, #1
    c6d4:	e1a08088 	lsl	r8, r8, #1
    c6d8:	e3180c01 	tst	r8, #256	; 0x100
    c6dc:	0afffff3 	beq	c6b0 <rowLoop19$>
    c6e0:	e2866001 	add	r6, r6, #1
    c6e4:	e314000f 	tst	r4, #15
    c6e8:	1affffed 	bne	c6a4 <charLoop19$>
    c6ec:	e8bd81f0 	pop	{r4, r5, r6, r7, r8, pc}

0000c6f0 <DrawCharNO>:
    c6f0:	e92d41f0 	push	{r4, r5, r6, r7, r8, lr}
    c6f4:	e59f4894 	ldr	r4, [pc, #2196]	; cf90 <noPixel42$+0x20>
    c6f8:	e3a0004f 	mov	r0, #79	; 0x4f
    c6fc:	e0844200 	add	r4, r4, r0, lsl #4
    c700:	e3a06d0b 	mov	r6, #704	; 0x2c0

0000c704 <charLoop20$>:
    c704:	e3a05021 	mov	r5, #33	; 0x21
    c708:	e3a08001 	mov	r8, #1
    c70c:	e4d47001 	ldrb	r7, [r4], #1

0000c710 <rowLoop20$>:
    c710:	e1170008 	tst	r7, r8
    c714:	0a000005 	beq	c730 <noPixel20$>
    c718:	e1a00005 	mov	r0, r5
    c71c:	e1a01006 	mov	r1, r6
    c720:	e3590000 	cmp	r9, #0
    c724:	059f2868 	ldreq	r2, [pc, #2152]	; cf94 <noPixel42$+0x24>
    c728:	159f2868 	ldrne	r2, [pc, #2152]	; cf98 <noPixel42$+0x28>
    c72c:	eb000e37 	bl	10010 <DrawPixel>

0000c730 <noPixel20$>:
    c730:	e2855001 	add	r5, r5, #1
    c734:	e1a08088 	lsl	r8, r8, #1
    c738:	e3180c01 	tst	r8, #256	; 0x100
    c73c:	0afffff3 	beq	c710 <rowLoop20$>
    c740:	e2866001 	add	r6, r6, #1
    c744:	e314000f 	tst	r4, #15
    c748:	1affffed 	bne	c704 <charLoop20$>
    c74c:	e8bd81f0 	pop	{r4, r5, r6, r7, r8, pc}

0000c750 <DrawCharNE2>:
    c750:	e92d41f0 	push	{r4, r5, r6, r7, r8, lr}
    c754:	e59f4834 	ldr	r4, [pc, #2100]	; cf90 <noPixel42$+0x20>
    c758:	e3a00045 	mov	r0, #69	; 0x45
    c75c:	e0844200 	add	r4, r4, r0, lsl #4
    c760:	e3a06d0b 	mov	r6, #704	; 0x2c0

0000c764 <charLoop21$>:
    c764:	e3a05029 	mov	r5, #41	; 0x29
    c768:	e3a08001 	mov	r8, #1
    c76c:	e4d47001 	ldrb	r7, [r4], #1

0000c770 <rowLoop21$>:
    c770:	e1170008 	tst	r7, r8
    c774:	0a000005 	beq	c790 <noPixel21$>
    c778:	e1a00005 	mov	r0, r5
    c77c:	e1a01006 	mov	r1, r6
    c780:	e3590000 	cmp	r9, #0
    c784:	059f2808 	ldreq	r2, [pc, #2056]	; cf94 <noPixel42$+0x24>
    c788:	159f2808 	ldrne	r2, [pc, #2056]	; cf98 <noPixel42$+0x28>
    c78c:	eb000e1f 	bl	10010 <DrawPixel>

0000c790 <noPixel21$>:
    c790:	e2855001 	add	r5, r5, #1
    c794:	e1a08088 	lsl	r8, r8, #1
    c798:	e3180c01 	tst	r8, #256	; 0x100
    c79c:	0afffff3 	beq	c770 <rowLoop21$>
    c7a0:	e2866001 	add	r6, r6, #1
    c7a4:	e314000f 	tst	r4, #15
    c7a8:	1affffed 	bne	c764 <charLoop21$>
    c7ac:	e8bd81f0 	pop	{r4, r5, r6, r7, r8, pc}

0000c7b0 <DrawCharNL3>:
    c7b0:	e92d41f0 	push	{r4, r5, r6, r7, r8, lr}
    c7b4:	e59f47d4 	ldr	r4, [pc, #2004]	; cf90 <noPixel42$+0x20>
    c7b8:	e3a0004c 	mov	r0, #76	; 0x4c
    c7bc:	e0844200 	add	r4, r4, r0, lsl #4
    c7c0:	e3a06d0b 	mov	r6, #704	; 0x2c0

0000c7c4 <charLoop22$>:
    c7c4:	e3a05031 	mov	r5, #49	; 0x31
    c7c8:	e3a08001 	mov	r8, #1
    c7cc:	e4d47001 	ldrb	r7, [r4], #1

0000c7d0 <rowLoop22$>:
    c7d0:	e1170008 	tst	r7, r8
    c7d4:	0a000005 	beq	c7f0 <noPixel22$>
    c7d8:	e1a00005 	mov	r0, r5
    c7dc:	e1a01006 	mov	r1, r6
    c7e0:	e3590000 	cmp	r9, #0
    c7e4:	059f27a8 	ldreq	r2, [pc, #1960]	; cf94 <noPixel42$+0x24>
    c7e8:	159f27a8 	ldrne	r2, [pc, #1960]	; cf98 <noPixel42$+0x28>
    c7ec:	eb000e07 	bl	10010 <DrawPixel>

0000c7f0 <noPixel22$>:
    c7f0:	e2855001 	add	r5, r5, #1
    c7f4:	e1a08088 	lsl	r8, r8, #1
    c7f8:	e3180c01 	tst	r8, #256	; 0x100
    c7fc:	0afffff3 	beq	c7d0 <rowLoop22$>
    c800:	e2866001 	add	r6, r6, #1
    c804:	e314000f 	tst	r4, #15
    c808:	1affffed 	bne	c7c4 <charLoop22$>
    c80c:	e8bd81f0 	pop	{r4, r5, r6, r7, r8, pc}

0000c810 <DrawCharNN>:
    c810:	e92d41f0 	push	{r4, r5, r6, r7, r8, lr}
    c814:	e59f4774 	ldr	r4, [pc, #1908]	; cf90 <noPixel42$+0x20>
    c818:	e3a0004e 	mov	r0, #78	; 0x4e
    c81c:	e0844200 	add	r4, r4, r0, lsl #4
    c820:	e3a06d0b 	mov	r6, #704	; 0x2c0

0000c824 <charLoop23$>:
    c824:	e3a05041 	mov	r5, #65	; 0x41
    c828:	e3a08001 	mov	r8, #1
    c82c:	e4d47001 	ldrb	r7, [r4], #1

0000c830 <rowLoop23$>:
    c830:	e1170008 	tst	r7, r8
    c834:	0a000005 	beq	c850 <noPixel23$>
    c838:	e1a00005 	mov	r0, r5
    c83c:	e1a01006 	mov	r1, r6
    c840:	e3590000 	cmp	r9, #0
    c844:	059f2748 	ldreq	r2, [pc, #1864]	; cf94 <noPixel42$+0x24>
    c848:	159f2748 	ldrne	r2, [pc, #1864]	; cf98 <noPixel42$+0x28>
    c84c:	eb000def 	bl	10010 <DrawPixel>

0000c850 <noPixel23$>:
    c850:	e2855001 	add	r5, r5, #1
    c854:	e1a08088 	lsl	r8, r8, #1
    c858:	e3180c01 	tst	r8, #256	; 0x100
    c85c:	0afffff3 	beq	c830 <rowLoop23$>
    c860:	e2866001 	add	r6, r6, #1
    c864:	e314000f 	tst	r4, #15
    c868:	1affffed 	bne	c824 <charLoop23$>
    c86c:	e8bd81f0 	pop	{r4, r5, r6, r7, r8, pc}

0000c870 <DrawCharNI3>:
    c870:	e92d41f0 	push	{r4, r5, r6, r7, r8, lr}
    c874:	e59f4714 	ldr	r4, [pc, #1812]	; cf90 <noPixel42$+0x20>
    c878:	e3a00049 	mov	r0, #73	; 0x49
    c87c:	e0844200 	add	r4, r4, r0, lsl #4
    c880:	e3a06d0b 	mov	r6, #704	; 0x2c0

0000c884 <charLoop24$>:
    c884:	e3a05049 	mov	r5, #73	; 0x49
    c888:	e3a08001 	mov	r8, #1
    c88c:	e4d47001 	ldrb	r7, [r4], #1

0000c890 <rowLoop24$>:
    c890:	e1170008 	tst	r7, r8
    c894:	0a000005 	beq	c8b0 <noPixel24$>
    c898:	e1a00005 	mov	r0, r5
    c89c:	e1a01006 	mov	r1, r6
    c8a0:	e3590000 	cmp	r9, #0
    c8a4:	059f26e8 	ldreq	r2, [pc, #1768]	; cf94 <noPixel42$+0x24>
    c8a8:	159f26e8 	ldrne	r2, [pc, #1768]	; cf98 <noPixel42$+0x28>
    c8ac:	eb000dd7 	bl	10010 <DrawPixel>

0000c8b0 <noPixel24$>:
    c8b0:	e2855001 	add	r5, r5, #1
    c8b4:	e1a08088 	lsl	r8, r8, #1
    c8b8:	e3180c01 	tst	r8, #256	; 0x100
    c8bc:	0afffff3 	beq	c890 <rowLoop24$>
    c8c0:	e2866001 	add	r6, r6, #1
    c8c4:	e314000f 	tst	r4, #15
    c8c8:	1affffed 	bne	c884 <charLoop24$>
    c8cc:	e8bd81f0 	pop	{r4, r5, r6, r7, r8, pc}

0000c8d0 <DrawCharNE3>:
    c8d0:	e92d41f0 	push	{r4, r5, r6, r7, r8, lr}
    c8d4:	e59f46b4 	ldr	r4, [pc, #1716]	; cf90 <noPixel42$+0x20>
    c8d8:	e3a00045 	mov	r0, #69	; 0x45
    c8dc:	e0844200 	add	r4, r4, r0, lsl #4
    c8e0:	e3a06d0b 	mov	r6, #704	; 0x2c0

0000c8e4 <charLoop25$>:
    c8e4:	e3a05051 	mov	r5, #81	; 0x51
    c8e8:	e3a08001 	mov	r8, #1
    c8ec:	e4d47001 	ldrb	r7, [r4], #1

0000c8f0 <rowLoop25$>:
    c8f0:	e1170008 	tst	r7, r8
    c8f4:	0a000005 	beq	c910 <noPixel25$>
    c8f8:	e1a00005 	mov	r0, r5
    c8fc:	e1a01006 	mov	r1, r6
    c900:	e3590000 	cmp	r9, #0
    c904:	059f2688 	ldreq	r2, [pc, #1672]	; cf94 <noPixel42$+0x24>
    c908:	159f2688 	ldrne	r2, [pc, #1672]	; cf98 <noPixel42$+0x28>
    c90c:	eb000dbf 	bl	10010 <DrawPixel>

0000c910 <noPixel25$>:
    c910:	e2855001 	add	r5, r5, #1
    c914:	e1a08088 	lsl	r8, r8, #1
    c918:	e3180c01 	tst	r8, #256	; 0x100
    c91c:	0afffff3 	beq	c8f0 <rowLoop25$>
    c920:	e2866001 	add	r6, r6, #1
    c924:	e314000f 	tst	r4, #15
    c928:	1affffed 	bne	c8e4 <charLoop25$>
    c92c:	e8bd81f0 	pop	{r4, r5, r6, r7, r8, pc}

0000c930 <DrawCharNL4>:
    c930:	e92d41f0 	push	{r4, r5, r6, r7, r8, lr}
    c934:	e59f4654 	ldr	r4, [pc, #1620]	; cf90 <noPixel42$+0x20>
    c938:	e3a0004c 	mov	r0, #76	; 0x4c
    c93c:	e0844200 	add	r4, r4, r0, lsl #4
    c940:	e3a06d0b 	mov	r6, #704	; 0x2c0

0000c944 <charLoop26$>:
    c944:	e3a05059 	mov	r5, #89	; 0x59
    c948:	e3a08001 	mov	r8, #1
    c94c:	e4d47001 	ldrb	r7, [r4], #1

0000c950 <rowLoop26$>:
    c950:	e1170008 	tst	r7, r8
    c954:	0a000005 	beq	c970 <noPixel26$>
    c958:	e1a00005 	mov	r0, r5
    c95c:	e1a01006 	mov	r1, r6
    c960:	e3590000 	cmp	r9, #0
    c964:	059f2628 	ldreq	r2, [pc, #1576]	; cf94 <noPixel42$+0x24>
    c968:	159f2628 	ldrne	r2, [pc, #1576]	; cf98 <noPixel42$+0x28>
    c96c:	eb000da7 	bl	10010 <DrawPixel>

0000c970 <noPixel26$>:
    c970:	e2855001 	add	r5, r5, #1
    c974:	e1a08088 	lsl	r8, r8, #1
    c978:	e3180c01 	tst	r8, #256	; 0x100
    c97c:	0afffff3 	beq	c950 <rowLoop26$>
    c980:	e2866001 	add	r6, r6, #1
    c984:	e314000f 	tst	r4, #15
    c988:	1affffed 	bne	c944 <charLoop26$>
    c98c:	e8bd81f0 	pop	{r4, r5, r6, r7, r8, pc}

0000c990 <DrawCharNS2>:
    c990:	e92d41f0 	push	{r4, r5, r6, r7, r8, lr}
    c994:	e59f45f4 	ldr	r4, [pc, #1524]	; cf90 <noPixel42$+0x20>
    c998:	e3a00053 	mov	r0, #83	; 0x53
    c99c:	e0844200 	add	r4, r4, r0, lsl #4
    c9a0:	e3a06d0b 	mov	r6, #704	; 0x2c0

0000c9a4 <charLoop27$>:
    c9a4:	e3a05061 	mov	r5, #97	; 0x61
    c9a8:	e3a08001 	mov	r8, #1
    c9ac:	e4d47001 	ldrb	r7, [r4], #1

0000c9b0 <rowLoop27$>:
    c9b0:	e1170008 	tst	r7, r8
    c9b4:	0a000005 	beq	c9d0 <noPixel27$>
    c9b8:	e1a00005 	mov	r0, r5
    c9bc:	e1a01006 	mov	r1, r6
    c9c0:	e3590000 	cmp	r9, #0
    c9c4:	059f25c8 	ldreq	r2, [pc, #1480]	; cf94 <noPixel42$+0x24>
    c9c8:	159f25c8 	ldrne	r2, [pc, #1480]	; cf98 <noPixel42$+0x28>
    c9cc:	eb000d8f 	bl	10010 <DrawPixel>

0000c9d0 <noPixel27$>:
    c9d0:	e2855001 	add	r5, r5, #1
    c9d4:	e1a08088 	lsl	r8, r8, #1
    c9d8:	e3180c01 	tst	r8, #256	; 0x100
    c9dc:	0afffff3 	beq	c9b0 <rowLoop27$>
    c9e0:	e2866001 	add	r6, r6, #1
    c9e4:	e314000f 	tst	r4, #15
    c9e8:	1affffed 	bne	c9a4 <charLoop27$>
    c9ec:	e8bd81f0 	pop	{r4, r5, r6, r7, r8, pc}

0000c9f0 <DrawCharNE4>:
    c9f0:	e92d41f0 	push	{r4, r5, r6, r7, r8, lr}
    c9f4:	e59f4594 	ldr	r4, [pc, #1428]	; cf90 <noPixel42$+0x20>
    c9f8:	e3a00045 	mov	r0, #69	; 0x45
    c9fc:	e0844200 	add	r4, r4, r0, lsl #4
    ca00:	e3a06d0b 	mov	r6, #704	; 0x2c0

0000ca04 <charLoop28$>:
    ca04:	e3a05069 	mov	r5, #105	; 0x69
    ca08:	e3a08001 	mov	r8, #1
    ca0c:	e4d47001 	ldrb	r7, [r4], #1

0000ca10 <rowLoop28$>:
    ca10:	e1170008 	tst	r7, r8
    ca14:	0a000005 	beq	ca30 <noPixel28$>
    ca18:	e1a00005 	mov	r0, r5
    ca1c:	e1a01006 	mov	r1, r6
    ca20:	e3590000 	cmp	r9, #0
    ca24:	059f2568 	ldreq	r2, [pc, #1384]	; cf94 <noPixel42$+0x24>
    ca28:	159f2568 	ldrne	r2, [pc, #1384]	; cf98 <noPixel42$+0x28>
    ca2c:	eb000d77 	bl	10010 <DrawPixel>

0000ca30 <noPixel28$>:
    ca30:	e2855001 	add	r5, r5, #1
    ca34:	e1a08088 	lsl	r8, r8, #1
    ca38:	e3180c01 	tst	r8, #256	; 0x100
    ca3c:	0afffff3 	beq	ca10 <rowLoop28$>
    ca40:	e2866001 	add	r6, r6, #1
    ca44:	e314000f 	tst	r4, #15
    ca48:	1affffed 	bne	ca04 <charLoop28$>
    ca4c:	e8bd81f0 	pop	{r4, r5, r6, r7, r8, pc}

0000ca50 <DrawCharNN2>:
    ca50:	e92d41f0 	push	{r4, r5, r6, r7, r8, lr}
    ca54:	e59f4534 	ldr	r4, [pc, #1332]	; cf90 <noPixel42$+0x20>
    ca58:	e3a0004e 	mov	r0, #78	; 0x4e
    ca5c:	e0844200 	add	r4, r4, r0, lsl #4
    ca60:	e3a06d0b 	mov	r6, #704	; 0x2c0

0000ca64 <charLoop29$>:
    ca64:	e3a05071 	mov	r5, #113	; 0x71
    ca68:	e3a08001 	mov	r8, #1
    ca6c:	e4d47001 	ldrb	r7, [r4], #1

0000ca70 <rowLoop29$>:
    ca70:	e1170008 	tst	r7, r8
    ca74:	0a000005 	beq	ca90 <noPixel29$>
    ca78:	e1a00005 	mov	r0, r5
    ca7c:	e1a01006 	mov	r1, r6
    ca80:	e3590000 	cmp	r9, #0
    ca84:	059f2508 	ldreq	r2, [pc, #1288]	; cf94 <noPixel42$+0x24>
    ca88:	159f2508 	ldrne	r2, [pc, #1288]	; cf98 <noPixel42$+0x28>
    ca8c:	eb000d5f 	bl	10010 <DrawPixel>

0000ca90 <noPixel29$>:
    ca90:	e2855001 	add	r5, r5, #1
    ca94:	e1a08088 	lsl	r8, r8, #1
    ca98:	e3180c01 	tst	r8, #256	; 0x100
    ca9c:	0afffff3 	beq	ca70 <rowLoop29$>
    caa0:	e2866001 	add	r6, r6, #1
    caa4:	e314000f 	tst	r4, #15
    caa8:	1affffed 	bne	ca64 <charLoop29$>
    caac:	e8bd81f0 	pop	{r4, r5, r6, r7, r8, pc}

0000cab0 <DrawCharNM2>:
    cab0:	e92d41f0 	push	{r4, r5, r6, r7, r8, lr}
    cab4:	e59f44d4 	ldr	r4, [pc, #1236]	; cf90 <noPixel42$+0x20>
    cab8:	e3a0004d 	mov	r0, #77	; 0x4d
    cabc:	e0844200 	add	r4, r4, r0, lsl #4
    cac0:	e3a06fba 	mov	r6, #744	; 0x2e8

0000cac4 <charLoop30$>:
    cac4:	e3a05019 	mov	r5, #25
    cac8:	e3a08001 	mov	r8, #1
    cacc:	e4d47001 	ldrb	r7, [r4], #1

0000cad0 <rowLoop30$>:
    cad0:	e1170008 	tst	r7, r8
    cad4:	0a000005 	beq	caf0 <noPixel30$>
    cad8:	e1a00005 	mov	r0, r5
    cadc:	e1a01006 	mov	r1, r6
    cae0:	e3590000 	cmp	r9, #0
    cae4:	059f24a8 	ldreq	r2, [pc, #1192]	; cf94 <noPixel42$+0x24>
    cae8:	159f24a8 	ldrne	r2, [pc, #1192]	; cf98 <noPixel42$+0x28>
    caec:	eb000d47 	bl	10010 <DrawPixel>

0000caf0 <noPixel30$>:
    caf0:	e2855001 	add	r5, r5, #1
    caf4:	e1a08088 	lsl	r8, r8, #1
    caf8:	e3180c01 	tst	r8, #256	; 0x100
    cafc:	0afffff3 	beq	cad0 <rowLoop30$>
    cb00:	e2866001 	add	r6, r6, #1
    cb04:	e314000f 	tst	r4, #15
    cb08:	1affffed 	bne	cac4 <charLoop30$>
    cb0c:	e8bd81f0 	pop	{r4, r5, r6, r7, r8, pc}

0000cb10 <DrawCharNA5>:
    cb10:	e92d41f0 	push	{r4, r5, r6, r7, r8, lr}
    cb14:	e59f4474 	ldr	r4, [pc, #1140]	; cf90 <noPixel42$+0x20>
    cb18:	e3a00041 	mov	r0, #65	; 0x41
    cb1c:	e0844200 	add	r4, r4, r0, lsl #4
    cb20:	e3a06fba 	mov	r6, #744	; 0x2e8

0000cb24 <charLoop31$>:
    cb24:	e3a05021 	mov	r5, #33	; 0x21
    cb28:	e3a08001 	mov	r8, #1
    cb2c:	e4d47001 	ldrb	r7, [r4], #1

0000cb30 <rowLoop31$>:
    cb30:	e1170008 	tst	r7, r8
    cb34:	0a000005 	beq	cb50 <noPixel31$>
    cb38:	e1a00005 	mov	r0, r5
    cb3c:	e1a01006 	mov	r1, r6
    cb40:	e3590000 	cmp	r9, #0
    cb44:	059f2448 	ldreq	r2, [pc, #1096]	; cf94 <noPixel42$+0x24>
    cb48:	159f2448 	ldrne	r2, [pc, #1096]	; cf98 <noPixel42$+0x28>
    cb4c:	eb000d2f 	bl	10010 <DrawPixel>

0000cb50 <noPixel31$>:
    cb50:	e2855001 	add	r5, r5, #1
    cb54:	e1a08088 	lsl	r8, r8, #1
    cb58:	e3180c01 	tst	r8, #256	; 0x100
    cb5c:	0afffff3 	beq	cb30 <rowLoop31$>
    cb60:	e2866001 	add	r6, r6, #1
    cb64:	e314000f 	tst	r4, #15
    cb68:	1affffed 	bne	cb24 <charLoop31$>
    cb6c:	e8bd81f0 	pop	{r4, r5, r6, r7, r8, pc}

0000cb70 <DrawCharNR>:
    cb70:	e92d41f0 	push	{r4, r5, r6, r7, r8, lr}
    cb74:	e59f4414 	ldr	r4, [pc, #1044]	; cf90 <noPixel42$+0x20>
    cb78:	e3a00052 	mov	r0, #82	; 0x52
    cb7c:	e0844200 	add	r4, r4, r0, lsl #4
    cb80:	e3a06fba 	mov	r6, #744	; 0x2e8

0000cb84 <charLoop32$>:
    cb84:	e3a05029 	mov	r5, #41	; 0x29
    cb88:	e3a08001 	mov	r8, #1
    cb8c:	e4d47001 	ldrb	r7, [r4], #1

0000cb90 <rowLoop32$>:
    cb90:	e1170008 	tst	r7, r8
    cb94:	0a000005 	beq	cbb0 <noPixel32$>
    cb98:	e1a00005 	mov	r0, r5
    cb9c:	e1a01006 	mov	r1, r6
    cba0:	e3590000 	cmp	r9, #0
    cba4:	059f23e8 	ldreq	r2, [pc, #1000]	; cf94 <noPixel42$+0x24>
    cba8:	159f23e8 	ldrne	r2, [pc, #1000]	; cf98 <noPixel42$+0x28>
    cbac:	eb000d17 	bl	10010 <DrawPixel>

0000cbb0 <noPixel32$>:
    cbb0:	e2855001 	add	r5, r5, #1
    cbb4:	e1a08088 	lsl	r8, r8, #1
    cbb8:	e3180c01 	tst	r8, #256	; 0x100
    cbbc:	0afffff3 	beq	cb90 <rowLoop32$>
    cbc0:	e2866001 	add	r6, r6, #1
    cbc4:	e314000f 	tst	r4, #15
    cbc8:	1affffed 	bne	cb84 <charLoop32$>
    cbcc:	e8bd81f0 	pop	{r4, r5, r6, r7, r8, pc}

0000cbd0 <DrawCharNC3>:
    cbd0:	e92d41f0 	push	{r4, r5, r6, r7, r8, lr}
    cbd4:	e59f43b4 	ldr	r4, [pc, #948]	; cf90 <noPixel42$+0x20>
    cbd8:	e3a00043 	mov	r0, #67	; 0x43
    cbdc:	e0844200 	add	r4, r4, r0, lsl #4
    cbe0:	e3a06fba 	mov	r6, #744	; 0x2e8

0000cbe4 <charLoop33$>:
    cbe4:	e3a05031 	mov	r5, #49	; 0x31
    cbe8:	e3a08001 	mov	r8, #1
    cbec:	e4d47001 	ldrb	r7, [r4], #1

0000cbf0 <rowLoop33$>:
    cbf0:	e1170008 	tst	r7, r8
    cbf4:	0a000005 	beq	cc10 <noPixel33$>
    cbf8:	e1a00005 	mov	r0, r5
    cbfc:	e1a01006 	mov	r1, r6
    cc00:	e3590000 	cmp	r9, #0
    cc04:	059f2388 	ldreq	r2, [pc, #904]	; cf94 <noPixel42$+0x24>
    cc08:	159f2388 	ldrne	r2, [pc, #904]	; cf98 <noPixel42$+0x28>
    cc0c:	eb000cff 	bl	10010 <DrawPixel>

0000cc10 <noPixel33$>:
    cc10:	e2855001 	add	r5, r5, #1
    cc14:	e1a08088 	lsl	r8, r8, #1
    cc18:	e3180c01 	tst	r8, #256	; 0x100
    cc1c:	0afffff3 	beq	cbf0 <rowLoop33$>
    cc20:	e2866001 	add	r6, r6, #1
    cc24:	e314000f 	tst	r4, #15
    cc28:	1affffed 	bne	cbe4 <charLoop33$>
    cc2c:	e8bd81f0 	pop	{r4, r5, r6, r7, r8, pc}

0000cc30 <DrawCharNU2>:
    cc30:	e92d41f0 	push	{r4, r5, r6, r7, r8, lr}
    cc34:	e59f4354 	ldr	r4, [pc, #852]	; cf90 <noPixel42$+0x20>
    cc38:	e3a00055 	mov	r0, #85	; 0x55
    cc3c:	e0844200 	add	r4, r4, r0, lsl #4
    cc40:	e3a06fba 	mov	r6, #744	; 0x2e8

0000cc44 <charLoop34$>:
    cc44:	e3a05039 	mov	r5, #57	; 0x39
    cc48:	e3a08001 	mov	r8, #1
    cc4c:	e4d47001 	ldrb	r7, [r4], #1

0000cc50 <rowLoop34$>:
    cc50:	e1170008 	tst	r7, r8
    cc54:	0a000005 	beq	cc70 <noPixel34$>
    cc58:	e1a00005 	mov	r0, r5
    cc5c:	e1a01006 	mov	r1, r6
    cc60:	e3590000 	cmp	r9, #0
    cc64:	059f2328 	ldreq	r2, [pc, #808]	; cf94 <noPixel42$+0x24>
    cc68:	159f2328 	ldrne	r2, [pc, #808]	; cf98 <noPixel42$+0x28>
    cc6c:	eb000ce7 	bl	10010 <DrawPixel>

0000cc70 <noPixel34$>:
    cc70:	e2855001 	add	r5, r5, #1
    cc74:	e1a08088 	lsl	r8, r8, #1
    cc78:	e3180c01 	tst	r8, #256	; 0x100
    cc7c:	0afffff3 	beq	cc50 <rowLoop34$>
    cc80:	e2866001 	add	r6, r6, #1
    cc84:	e314000f 	tst	r4, #15
    cc88:	1affffed 	bne	cc44 <charLoop34$>
    cc8c:	e8bd81f0 	pop	{r4, r5, r6, r7, r8, pc}

0000cc90 <DrawCharNS3>:
    cc90:	e92d41f0 	push	{r4, r5, r6, r7, r8, lr}
    cc94:	e59f42f4 	ldr	r4, [pc, #756]	; cf90 <noPixel42$+0x20>
    cc98:	e3a00053 	mov	r0, #83	; 0x53
    cc9c:	e0844200 	add	r4, r4, r0, lsl #4
    cca0:	e3a06fba 	mov	r6, #744	; 0x2e8

0000cca4 <charLoop35$>:
    cca4:	e3a05041 	mov	r5, #65	; 0x41
    cca8:	e3a08001 	mov	r8, #1
    ccac:	e4d47001 	ldrb	r7, [r4], #1

0000ccb0 <rowLoop35$>:
    ccb0:	e1170008 	tst	r7, r8
    ccb4:	0a000005 	beq	ccd0 <noPixel35$>
    ccb8:	e1a00005 	mov	r0, r5
    ccbc:	e1a01006 	mov	r1, r6
    ccc0:	e3590000 	cmp	r9, #0
    ccc4:	059f22c8 	ldreq	r2, [pc, #712]	; cf94 <noPixel42$+0x24>
    ccc8:	159f22c8 	ldrne	r2, [pc, #712]	; cf98 <noPixel42$+0x28>
    cccc:	eb000ccf 	bl	10010 <DrawPixel>

0000ccd0 <noPixel35$>:
    ccd0:	e2855001 	add	r5, r5, #1
    ccd4:	e1a08088 	lsl	r8, r8, #1
    ccd8:	e3180c01 	tst	r8, #256	; 0x100
    ccdc:	0afffff3 	beq	ccb0 <rowLoop35$>
    cce0:	e2866001 	add	r6, r6, #1
    cce4:	e314000f 	tst	r4, #15
    cce8:	1affffed 	bne	cca4 <charLoop35$>
    ccec:	e8bd81f0 	pop	{r4, r5, r6, r7, r8, pc}

0000ccf0 <DrawCharNS4>:
    ccf0:	e92d41f0 	push	{r4, r5, r6, r7, r8, lr}
    ccf4:	e59f4294 	ldr	r4, [pc, #660]	; cf90 <noPixel42$+0x20>
    ccf8:	e3a00053 	mov	r0, #83	; 0x53
    ccfc:	e0844200 	add	r4, r4, r0, lsl #4
    cd00:	e3a06fba 	mov	r6, #744	; 0x2e8

0000cd04 <charLoop36$>:
    cd04:	e3a05051 	mov	r5, #81	; 0x51
    cd08:	e3a08001 	mov	r8, #1
    cd0c:	e4d47001 	ldrb	r7, [r4], #1

0000cd10 <rowLoop36$>:
    cd10:	e1170008 	tst	r7, r8
    cd14:	0a000005 	beq	cd30 <noPixel36$>
    cd18:	e1a00005 	mov	r0, r5
    cd1c:	e1a01006 	mov	r1, r6
    cd20:	e3590000 	cmp	r9, #0
    cd24:	059f2268 	ldreq	r2, [pc, #616]	; cf94 <noPixel42$+0x24>
    cd28:	159f2268 	ldrne	r2, [pc, #616]	; cf98 <noPixel42$+0x28>
    cd2c:	eb000cb7 	bl	10010 <DrawPixel>

0000cd30 <noPixel36$>:
    cd30:	e2855001 	add	r5, r5, #1
    cd34:	e1a08088 	lsl	r8, r8, #1
    cd38:	e3180c01 	tst	r8, #256	; 0x100
    cd3c:	0afffff3 	beq	cd10 <rowLoop36$>
    cd40:	e2866001 	add	r6, r6, #1
    cd44:	e314000f 	tst	r4, #15
    cd48:	1affffed 	bne	cd04 <charLoop36$>
    cd4c:	e8bd81f0 	pop	{r4, r5, r6, r7, r8, pc}

0000cd50 <DrawCharNT>:
    cd50:	e92d41f0 	push	{r4, r5, r6, r7, r8, lr}
    cd54:	e59f4234 	ldr	r4, [pc, #564]	; cf90 <noPixel42$+0x20>
    cd58:	e3a00054 	mov	r0, #84	; 0x54
    cd5c:	e0844200 	add	r4, r4, r0, lsl #4
    cd60:	e3a06fba 	mov	r6, #744	; 0x2e8

0000cd64 <charLoop37$>:
    cd64:	e3a05059 	mov	r5, #89	; 0x59
    cd68:	e3a08001 	mov	r8, #1
    cd6c:	e4d47001 	ldrb	r7, [r4], #1

0000cd70 <rowLoop37$>:
    cd70:	e1170008 	tst	r7, r8
    cd74:	0a000005 	beq	cd90 <noPixel37$>
    cd78:	e1a00005 	mov	r0, r5
    cd7c:	e1a01006 	mov	r1, r6
    cd80:	e3590000 	cmp	r9, #0
    cd84:	059f2208 	ldreq	r2, [pc, #520]	; cf94 <noPixel42$+0x24>
    cd88:	159f2208 	ldrne	r2, [pc, #520]	; cf98 <noPixel42$+0x28>
    cd8c:	eb000c9f 	bl	10010 <DrawPixel>

0000cd90 <noPixel37$>:
    cd90:	e2855001 	add	r5, r5, #1
    cd94:	e1a08088 	lsl	r8, r8, #1
    cd98:	e3180c01 	tst	r8, #256	; 0x100
    cd9c:	0afffff3 	beq	cd70 <rowLoop37$>
    cda0:	e2866001 	add	r6, r6, #1
    cda4:	e314000f 	tst	r4, #15
    cda8:	1affffed 	bne	cd64 <charLoop37$>
    cdac:	e8bd81f0 	pop	{r4, r5, r6, r7, r8, pc}

0000cdb0 <DrawCharNE5>:
    cdb0:	e92d41f0 	push	{r4, r5, r6, r7, r8, lr}
    cdb4:	e59f41d4 	ldr	r4, [pc, #468]	; cf90 <noPixel42$+0x20>
    cdb8:	e3a00045 	mov	r0, #69	; 0x45
    cdbc:	e0844200 	add	r4, r4, r0, lsl #4
    cdc0:	e3a06fba 	mov	r6, #744	; 0x2e8

0000cdc4 <charLoop38$>:
    cdc4:	e3a05061 	mov	r5, #97	; 0x61
    cdc8:	e3a08001 	mov	r8, #1
    cdcc:	e4d47001 	ldrb	r7, [r4], #1

0000cdd0 <rowLoop38$>:
    cdd0:	e1170008 	tst	r7, r8
    cdd4:	0a000005 	beq	cdf0 <noPixel38$>
    cdd8:	e1a00005 	mov	r0, r5
    cddc:	e1a01006 	mov	r1, r6
    cde0:	e3590000 	cmp	r9, #0
    cde4:	059f21a8 	ldreq	r2, [pc, #424]	; cf94 <noPixel42$+0x24>
    cde8:	159f21a8 	ldrne	r2, [pc, #424]	; cf98 <noPixel42$+0x28>
    cdec:	eb000c87 	bl	10010 <DrawPixel>

0000cdf0 <noPixel38$>:
    cdf0:	e2855001 	add	r5, r5, #1
    cdf4:	e1a08088 	lsl	r8, r8, #1
    cdf8:	e3180c01 	tst	r8, #256	; 0x100
    cdfc:	0afffff3 	beq	cdd0 <rowLoop38$>
    ce00:	e2866001 	add	r6, r6, #1
    ce04:	e314000f 	tst	r4, #15
    ce08:	1affffed 	bne	cdc4 <charLoop38$>
    ce0c:	e8bd81f0 	pop	{r4, r5, r6, r7, r8, pc}

0000ce10 <DrawCharNW>:
    ce10:	e92d41f0 	push	{r4, r5, r6, r7, r8, lr}
    ce14:	e59f4174 	ldr	r4, [pc, #372]	; cf90 <noPixel42$+0x20>
    ce18:	e3a00057 	mov	r0, #87	; 0x57
    ce1c:	e0844200 	add	r4, r4, r0, lsl #4
    ce20:	e3a06fba 	mov	r6, #744	; 0x2e8

0000ce24 <charLoop39$>:
    ce24:	e3a05069 	mov	r5, #105	; 0x69
    ce28:	e3a08001 	mov	r8, #1
    ce2c:	e4d47001 	ldrb	r7, [r4], #1

0000ce30 <rowLoop39$>:
    ce30:	e1170008 	tst	r7, r8
    ce34:	0a000005 	beq	ce50 <noPixel39$>
    ce38:	e1a00005 	mov	r0, r5
    ce3c:	e1a01006 	mov	r1, r6
    ce40:	e3590000 	cmp	r9, #0
    ce44:	059f2148 	ldreq	r2, [pc, #328]	; cf94 <noPixel42$+0x24>
    ce48:	159f2148 	ldrne	r2, [pc, #328]	; cf98 <noPixel42$+0x28>
    ce4c:	eb000c6f 	bl	10010 <DrawPixel>

0000ce50 <noPixel39$>:
    ce50:	e2855001 	add	r5, r5, #1
    ce54:	e1a08088 	lsl	r8, r8, #1
    ce58:	e3180c01 	tst	r8, #256	; 0x100
    ce5c:	0afffff3 	beq	ce30 <rowLoop39$>
    ce60:	e2866001 	add	r6, r6, #1
    ce64:	e314000f 	tst	r4, #15
    ce68:	1affffed 	bne	ce24 <charLoop39$>
    ce6c:	e8bd81f0 	pop	{r4, r5, r6, r7, r8, pc}

0000ce70 <DrawCharNA6>:
    ce70:	e92d41f0 	push	{r4, r5, r6, r7, r8, lr}
    ce74:	e59f4114 	ldr	r4, [pc, #276]	; cf90 <noPixel42$+0x20>
    ce78:	e3a00041 	mov	r0, #65	; 0x41
    ce7c:	e0844200 	add	r4, r4, r0, lsl #4
    ce80:	e3a06fba 	mov	r6, #744	; 0x2e8

0000ce84 <charLoop40$>:
    ce84:	e3a05071 	mov	r5, #113	; 0x71
    ce88:	e3a08001 	mov	r8, #1
    ce8c:	e4d47001 	ldrb	r7, [r4], #1

0000ce90 <rowLoop40$>:
    ce90:	e1170008 	tst	r7, r8
    ce94:	0a000005 	beq	ceb0 <noPixel40$>
    ce98:	e1a00005 	mov	r0, r5
    ce9c:	e1a01006 	mov	r1, r6
    cea0:	e3590000 	cmp	r9, #0
    cea4:	059f20e8 	ldreq	r2, [pc, #232]	; cf94 <noPixel42$+0x24>
    cea8:	159f20e8 	ldrne	r2, [pc, #232]	; cf98 <noPixel42$+0x28>
    ceac:	eb000c57 	bl	10010 <DrawPixel>

0000ceb0 <noPixel40$>:
    ceb0:	e2855001 	add	r5, r5, #1
    ceb4:	e1a08088 	lsl	r8, r8, #1
    ceb8:	e3180c01 	tst	r8, #256	; 0x100
    cebc:	0afffff3 	beq	ce90 <rowLoop40$>
    cec0:	e2866001 	add	r6, r6, #1
    cec4:	e314000f 	tst	r4, #15
    cec8:	1affffed 	bne	ce84 <charLoop40$>
    cecc:	e8bd81f0 	pop	{r4, r5, r6, r7, r8, pc}

0000ced0 <DrawCharNR2>:
    ced0:	e92d41f0 	push	{r4, r5, r6, r7, r8, lr}
    ced4:	e59f40b4 	ldr	r4, [pc, #180]	; cf90 <noPixel42$+0x20>
    ced8:	e3a00052 	mov	r0, #82	; 0x52
    cedc:	e0844200 	add	r4, r4, r0, lsl #4
    cee0:	e3a06fba 	mov	r6, #744	; 0x2e8

0000cee4 <charLoop41$>:
    cee4:	e3a05079 	mov	r5, #121	; 0x79
    cee8:	e3a08001 	mov	r8, #1
    ceec:	e4d47001 	ldrb	r7, [r4], #1

0000cef0 <rowLoop41$>:
    cef0:	e1170008 	tst	r7, r8
    cef4:	0a000005 	beq	cf10 <noPixel41$>
    cef8:	e1a00005 	mov	r0, r5
    cefc:	e1a01006 	mov	r1, r6
    cf00:	e3590000 	cmp	r9, #0
    cf04:	059f2088 	ldreq	r2, [pc, #136]	; cf94 <noPixel42$+0x24>
    cf08:	159f2088 	ldrne	r2, [pc, #136]	; cf98 <noPixel42$+0x28>
    cf0c:	eb000c3f 	bl	10010 <DrawPixel>

0000cf10 <noPixel41$>:
    cf10:	e2855001 	add	r5, r5, #1
    cf14:	e1a08088 	lsl	r8, r8, #1
    cf18:	e3180c01 	tst	r8, #256	; 0x100
    cf1c:	0afffff3 	beq	cef0 <rowLoop41$>
    cf20:	e2866001 	add	r6, r6, #1
    cf24:	e314000f 	tst	r4, #15
    cf28:	1affffed 	bne	cee4 <charLoop41$>
    cf2c:	e8bd81f0 	pop	{r4, r5, r6, r7, r8, pc}

0000cf30 <DrawCharNT2>:
    cf30:	e92d41f0 	push	{r4, r5, r6, r7, r8, lr}
    cf34:	e59f4054 	ldr	r4, [pc, #84]	; cf90 <noPixel42$+0x20>
    cf38:	e3a00054 	mov	r0, #84	; 0x54
    cf3c:	e0844200 	add	r4, r4, r0, lsl #4
    cf40:	e3a06fba 	mov	r6, #744	; 0x2e8

0000cf44 <charLoop42$>:
    cf44:	e3a05081 	mov	r5, #129	; 0x81
    cf48:	e3a08001 	mov	r8, #1
    cf4c:	e4d47001 	ldrb	r7, [r4], #1

0000cf50 <rowLoop42$>:
    cf50:	e1170008 	tst	r7, r8
    cf54:	0a000005 	beq	cf70 <noPixel42$>
    cf58:	e1a00005 	mov	r0, r5
    cf5c:	e1a01006 	mov	r1, r6
    cf60:	e3590000 	cmp	r9, #0
    cf64:	059f2028 	ldreq	r2, [pc, #40]	; cf94 <noPixel42$+0x24>
    cf68:	159f2028 	ldrne	r2, [pc, #40]	; cf98 <noPixel42$+0x28>
    cf6c:	eb000c27 	bl	10010 <DrawPixel>

0000cf70 <noPixel42$>:
    cf70:	e2855001 	add	r5, r5, #1
    cf74:	e1a08088 	lsl	r8, r8, #1
    cf78:	e3180c01 	tst	r8, #256	; 0x100
    cf7c:	0afffff3 	beq	cf50 <rowLoop42$>
    cf80:	e2866001 	add	r6, r6, #1
    cf84:	e314000f 	tst	r4, #15
    cf88:	1affffed 	bne	cf44 <charLoop42$>
    cf8c:	e8bd81f0 	pop	{r4, r5, r6, r7, r8, pc}
    cf90:	00009100 	.word	0x00009100
    cf94:	0000ffff 	.word	0x0000ffff
    cf98:	0000f920 	.word	0x0000f920
    cf9c:	e320f000 	nop	{0}

0000cfa0 <Drawman16bpp>:
    cfa0:	e92d07ff 	push	{r0, r1, r2, r3, r4, r5, r6, r7, r8, r9, sl}
    cfa4:	e59f342c 	ldr	r3, [pc, #1068]	; d3d8 <breaktest2+0x8>
    cfa8:	e3a00000 	mov	r0, #0
    cfac:	e0810502 	add	r0, r1, r2, lsl #10
    cfb0:	e1a00080 	lsl	r0, r0, #1
    cfb4:	e3a05000 	mov	r5, #0

0000cfb8 <manborder1>:
    cfb8:	e18430b0 	strh	r3, [r4, r0]
    cfbc:	e2800001 	add	r0, r0, #1
    cfc0:	e2855001 	add	r5, r5, #1
    cfc4:	e3550040 	cmp	r5, #64	; 0x40
    cfc8:	1afffffa 	bne	cfb8 <manborder1>
    cfcc:	e2822020 	add	r2, r2, #32
    cfd0:	e3a00000 	mov	r0, #0
    cfd4:	e0810502 	add	r0, r1, r2, lsl #10
    cfd8:	e1a00080 	lsl	r0, r0, #1
    cfdc:	e3a05000 	mov	r5, #0

0000cfe0 <manborder2>:
    cfe0:	e18430b0 	strh	r3, [r4, r0]
    cfe4:	e2800001 	add	r0, r0, #1
    cfe8:	e2855001 	add	r5, r5, #1
    cfec:	e3550040 	cmp	r5, #64	; 0x40
    cff0:	1afffffa 	bne	cfe0 <manborder2>
    cff4:	e2422020 	sub	r2, r2, #32
    cff8:	e3a00000 	mov	r0, #0
    cffc:	e0810502 	add	r0, r1, r2, lsl #10
    d000:	e1a00080 	lsl	r0, r0, #1
    d004:	e3a05000 	mov	r5, #0
    d008:	e52d1004 	push	{r1}		; (str r1, [sp, #-4]!)

0000d00c <manborder3>:
    d00c:	e18430b0 	strh	r3, [r4, r0]
    d010:	e2811b01 	add	r1, r1, #1024	; 0x400
    d014:	e3a00000 	mov	r0, #0
    d018:	e0810502 	add	r0, r1, r2, lsl #10
    d01c:	e1a00080 	lsl	r0, r0, #1
    d020:	e2855001 	add	r5, r5, #1
    d024:	e3550020 	cmp	r5, #32
    d028:	1afffff7 	bne	d00c <manborder3>
    d02c:	e49d1004 	pop	{r1}		; (ldr r1, [sp], #4)
    d030:	e2811020 	add	r1, r1, #32
    d034:	e3a00000 	mov	r0, #0
    d038:	e0810502 	add	r0, r1, r2, lsl #10
    d03c:	e1a00080 	lsl	r0, r0, #1
    d040:	e3a05000 	mov	r5, #0
    d044:	e52d1004 	push	{r1}		; (str r1, [sp, #-4]!)

0000d048 <manborder4>:
    d048:	e18430b0 	strh	r3, [r4, r0]
    d04c:	e2811b01 	add	r1, r1, #1024	; 0x400
    d050:	e3a00000 	mov	r0, #0
    d054:	e0810502 	add	r0, r1, r2, lsl #10
    d058:	e1a00080 	lsl	r0, r0, #1
    d05c:	e2855001 	add	r5, r5, #1
    d060:	e3550020 	cmp	r5, #32
    d064:	1afffff7 	bne	d048 <manborder4>
    d068:	e49d1004 	pop	{r1}		; (ldr r1, [sp], #4)
    d06c:	e2411020 	sub	r1, r1, #32
    d070:	e281100e 	add	r1, r1, #14
    d074:	e2822001 	add	r2, r2, #1
    d078:	e3a00000 	mov	r0, #0
    d07c:	e0810502 	add	r0, r1, r2, lsl #10
    d080:	e1a00080 	lsl	r0, r0, #1
    d084:	e3a05000 	mov	r5, #0
    d088:	e59f334c 	ldr	r3, [pc, #844]	; d3dc <breaktest2+0xc>

0000d08c <manline1part2>:
    d08c:	e18430b0 	strh	r3, [r4, r0]
    d090:	e2800001 	add	r0, r0, #1
    d094:	e2855001 	add	r5, r5, #1
    d098:	e3550008 	cmp	r5, #8
    d09c:	1afffffa 	bne	d08c <manline1part2>
    d0a0:	e3a05000 	mov	r5, #0
    d0a4:	e3a00000 	mov	r0, #0
    d0a8:	e2822001 	add	r2, r2, #1
    d0ac:	e2411003 	sub	r1, r1, #3
    d0b0:	e0810502 	add	r0, r1, r2, lsl #10
    d0b4:	e1a00080 	lsl	r0, r0, #1

0000d0b8 <manline2part2>:
    d0b8:	e18430b0 	strh	r3, [r4, r0]
    d0bc:	e2800001 	add	r0, r0, #1
    d0c0:	e2855001 	add	r5, r5, #1
    d0c4:	e3550014 	cmp	r5, #20
    d0c8:	1afffffa 	bne	d0b8 <manline2part2>
    d0cc:	e3a05000 	mov	r5, #0
    d0d0:	e3a06000 	mov	r6, #0
    d0d4:	e3a00000 	mov	r0, #0
    d0d8:	e2822001 	add	r2, r2, #1
    d0dc:	e2411003 	sub	r1, r1, #3
    d0e0:	e0810502 	add	r0, r1, r2, lsl #10
    d0e4:	e1a00080 	lsl	r0, r0, #1

0000d0e8 <manline3part2>:
    d0e8:	e18430b0 	strh	r3, [r4, r0]
    d0ec:	e2800001 	add	r0, r0, #1
    d0f0:	e2855001 	add	r5, r5, #1
    d0f4:	e3550020 	cmp	r5, #32
    d0f8:	1afffffa 	bne	d0e8 <manline3part2>
    d0fc:	e3a05000 	mov	r5, #0
    d100:	e2866001 	add	r6, r6, #1
    d104:	e3a00000 	mov	r0, #0
    d108:	e2822001 	add	r2, r2, #1
    d10c:	e0810502 	add	r0, r1, r2, lsl #10
    d110:	e1a00080 	lsl	r0, r0, #1
    d114:	e3560004 	cmp	r6, #4
    d118:	1afffff2 	bne	d0e8 <manline3part2>
    d11c:	e3a05000 	mov	r5, #0
    d120:	e3a00000 	mov	r0, #0
    d124:	e2811003 	add	r1, r1, #3
    d128:	e0810502 	add	r0, r1, r2, lsl #10
    d12c:	e1a00080 	lsl	r0, r0, #1

0000d130 <manline7part2>:
    d130:	e18430b0 	strh	r3, [r4, r0]
    d134:	e2800001 	add	r0, r0, #1
    d138:	e2855001 	add	r5, r5, #1
    d13c:	e3550014 	cmp	r5, #20
    d140:	1afffffa 	bne	d130 <manline7part2>
    d144:	e3a05000 	mov	r5, #0
    d148:	e3a00000 	mov	r0, #0
    d14c:	e2811003 	add	r1, r1, #3
    d150:	e2822001 	add	r2, r2, #1
    d154:	e0810502 	add	r0, r1, r2, lsl #10
    d158:	e1a00080 	lsl	r0, r0, #1

0000d15c <manline8part2>:
    d15c:	e18430b0 	strh	r3, [r4, r0]
    d160:	e2800001 	add	r0, r0, #1
    d164:	e2855001 	add	r5, r5, #1
    d168:	e3550008 	cmp	r5, #8
    d16c:	1afffffa 	bne	d15c <manline8part2>
    d170:	e3a05000 	mov	r5, #0
    d174:	e3a00000 	mov	r0, #0
    d178:	e2822001 	add	r2, r2, #1
    d17c:	e0810502 	add	r0, r1, r2, lsl #10
    d180:	e1a00080 	lsl	r0, r0, #1
    d184:	e59f3254 	ldr	r3, [pc, #596]	; d3e0 <breaktest2+0x10>

0000d188 <manline9part2>:
    d188:	e18430b0 	strh	r3, [r4, r0]
    d18c:	e2800001 	add	r0, r0, #1
    d190:	e2855001 	add	r5, r5, #1
    d194:	e3550008 	cmp	r5, #8
    d198:	1afffffa 	bne	d188 <manline9part2>
    d19c:	e3a05000 	mov	r5, #0
    d1a0:	e3a00000 	mov	r0, #0
    d1a4:	e2822001 	add	r2, r2, #1
    d1a8:	e2411008 	sub	r1, r1, #8
    d1ac:	e0810502 	add	r0, r1, r2, lsl #10
    d1b0:	e1a00080 	lsl	r0, r0, #1

0000d1b4 <manline10part2>:
    d1b4:	e18430b0 	strh	r3, [r4, r0]
    d1b8:	e2800001 	add	r0, r0, #1
    d1bc:	e2855001 	add	r5, r5, #1
    d1c0:	e3550028 	cmp	r5, #40	; 0x28
    d1c4:	1afffffa 	bne	d1b4 <manline10part2>
    d1c8:	e3a05000 	mov	r5, #0
    d1cc:	e2411002 	sub	r1, r1, #2
    d1d0:	e2822001 	add	r2, r2, #1
    d1d4:	e3a00000 	mov	r0, #0
    d1d8:	e0810502 	add	r0, r1, r2, lsl #10
    d1dc:	e1a00080 	lsl	r0, r0, #1
    d1e0:	e59f31f4 	ldr	r3, [pc, #500]	; d3dc <breaktest2+0xc>

0000d1e4 <manline11part2>:
    d1e4:	e18430b0 	strh	r3, [r4, r0]
    d1e8:	e2800001 	add	r0, r0, #1
    d1ec:	e2855001 	add	r5, r5, #1
    d1f0:	e3550004 	cmp	r5, #4
    d1f4:	1afffffa 	bne	d1e4 <manline11part2>
    d1f8:	e3a05000 	mov	r5, #0
    d1fc:	e59f31dc 	ldr	r3, [pc, #476]	; d3e0 <breaktest2+0x10>

0000d200 <manline11part3>:
    d200:	e18430b0 	strh	r3, [r4, r0]
    d204:	e2800001 	add	r0, r0, #1
    d208:	e2855001 	add	r5, r5, #1
    d20c:	e3550028 	cmp	r5, #40	; 0x28
    d210:	1afffffa 	bne	d200 <manline11part3>
    d214:	e3a05000 	mov	r5, #0
    d218:	e59f31bc 	ldr	r3, [pc, #444]	; d3dc <breaktest2+0xc>

0000d21c <manline11part4>:
    d21c:	e18430b0 	strh	r3, [r4, r0]
    d220:	e2800001 	add	r0, r0, #1
    d224:	e2855001 	add	r5, r5, #1
    d228:	e3550004 	cmp	r5, #4
    d22c:	1afffffa 	bne	d21c <manline11part4>
    d230:	e3a05000 	mov	r5, #0
    d234:	e3a00000 	mov	r0, #0
    d238:	e2811002 	add	r1, r1, #2
    d23c:	e2822001 	add	r2, r2, #1
    d240:	e0810502 	add	r0, r1, r2, lsl #10
    d244:	e1a00080 	lsl	r0, r0, #1
    d248:	e59f3190 	ldr	r3, [pc, #400]	; d3e0 <breaktest2+0x10>

0000d24c <manline12part2>:
    d24c:	e18430b0 	strh	r3, [r4, r0]
    d250:	e2800001 	add	r0, r0, #1
    d254:	e2855001 	add	r5, r5, #1
    d258:	e3550028 	cmp	r5, #40	; 0x28
    d25c:	1afffffa 	bne	d24c <manline12part2>
    d260:	e3a05000 	mov	r5, #0
    d264:	e2811006 	add	r1, r1, #6
    d268:	e3a06000 	mov	r6, #0
    d26c:	e3a00000 	mov	r0, #0
    d270:	e2822001 	add	r2, r2, #1
    d274:	e0810502 	add	r0, r1, r2, lsl #10
    d278:	e1a00080 	lsl	r0, r0, #1

0000d27c <manline13part2>:
    d27c:	e18430b0 	strh	r3, [r4, r0]
    d280:	e2800001 	add	r0, r0, #1
    d284:	e2855001 	add	r5, r5, #1
    d288:	e3550010 	cmp	r5, #16
    d28c:	1afffffa 	bne	d27c <manline13part2>
    d290:	e3a05000 	mov	r5, #0
    d294:	e3a00000 	mov	r0, #0
    d298:	e2822001 	add	r2, r2, #1
    d29c:	e0810502 	add	r0, r1, r2, lsl #10
    d2a0:	e1a00080 	lsl	r0, r0, #1
    d2a4:	e2866001 	add	r6, r6, #1
    d2a8:	e3560005 	cmp	r6, #5
    d2ac:	1afffff2 	bne	d27c <manline13part2>
    d2b0:	e3a05000 	mov	r5, #0
    d2b4:	e3a06000 	mov	r6, #0
    d2b8:	e3a00000 	mov	r0, #0
    d2bc:	e0810502 	add	r0, r1, r2, lsl #10
    d2c0:	e1a00080 	lsl	r0, r0, #1
    d2c4:	e59f3118 	ldr	r3, [pc, #280]	; d3e4 <breaktest2+0x14>

0000d2c8 <manline18part2>:
    d2c8:	e18430b0 	strh	r3, [r4, r0]
    d2cc:	e2800001 	add	r0, r0, #1
    d2d0:	e2855001 	add	r5, r5, #1
    d2d4:	e3550010 	cmp	r5, #16
    d2d8:	1afffffa 	bne	d2c8 <manline18part2>
    d2dc:	e3a05000 	mov	r5, #0
    d2e0:	e3a00000 	mov	r0, #0
    d2e4:	e2822001 	add	r2, r2, #1
    d2e8:	e0810502 	add	r0, r1, r2, lsl #10
    d2ec:	e1a00080 	lsl	r0, r0, #1
    d2f0:	e2866001 	add	r6, r6, #1
    d2f4:	e3560002 	cmp	r6, #2
    d2f8:	1afffff2 	bne	d2c8 <manline18part2>
    d2fc:	e3a05000 	mov	r5, #0
    d300:	e3a06000 	mov	r6, #0
    d304:	e3a00000 	mov	r0, #0
    d308:	e0810502 	add	r0, r1, r2, lsl #10
    d30c:	e1a00080 	lsl	r0, r0, #1

0000d310 <manline20part2>:
    d310:	e18430b0 	strh	r3, [r4, r0]
    d314:	e2800001 	add	r0, r0, #1
    d318:	e2855001 	add	r5, r5, #1
    d31c:	e3550006 	cmp	r5, #6
    d320:	1afffffa 	bne	d310 <manline20part2>
    d324:	e3a05000 	mov	r5, #0
    d328:	e2822001 	add	r2, r2, #1
    d32c:	e3a00000 	mov	r0, #0
    d330:	e0810502 	add	r0, r1, r2, lsl #10
    d334:	e1a00080 	lsl	r0, r0, #1
    d338:	e2866001 	add	r6, r6, #1
    d33c:	e3560006 	cmp	r6, #6
    d340:	1afffff2 	bne	d310 <manline20part2>
    d344:	e3a05000 	mov	r5, #0
    d348:	e3a06000 	mov	r6, #0
    d34c:	e3a00000 	mov	r0, #0
    d350:	e2811005 	add	r1, r1, #5
    d354:	e2422006 	sub	r2, r2, #6
    d358:	e0810502 	add	r0, r1, r2, lsl #10
    d35c:	e1a00080 	lsl	r0, r0, #1

0000d360 <manline20part4>:
    d360:	e18430b0 	strh	r3, [r4, r0]
    d364:	e2800001 	add	r0, r0, #1
    d368:	e2855001 	add	r5, r5, #1
    d36c:	e3550006 	cmp	r5, #6
    d370:	1afffffa 	bne	d360 <manline20part4>
    d374:	e3a05000 	mov	r5, #0
    d378:	e2822001 	add	r2, r2, #1
    d37c:	e3a00000 	mov	r0, #0
    d380:	e0810502 	add	r0, r1, r2, lsl #10
    d384:	e1a00080 	lsl	r0, r0, #1
    d388:	e2866001 	add	r6, r6, #1
    d38c:	e3560006 	cmp	r6, #6
    d390:	1afffff2 	bne	d360 <manline20part4>

0000d394 <breaktest1>:
    d394:	e3a00000 	mov	r0, #0
    d398:	e2411004 	sub	r1, r1, #4
    d39c:	e0810502 	add	r0, r1, r2, lsl #10
    d3a0:	e1a00080 	lsl	r0, r0, #1
    d3a4:	e59f3030 	ldr	r3, [pc, #48]	; d3dc <breaktest2+0xc>
    d3a8:	e18430b0 	strh	r3, [r4, r0]
    d3ac:	e280000a 	add	r0, r0, #10
    d3b0:	e18430b0 	strh	r3, [r4, r0]
    d3b4:	e3a05000 	mov	r5, #0
    d3b8:	e3a06000 	mov	r6, #0
    d3bc:	e3a00000 	mov	r0, #0
    d3c0:	e2822001 	add	r2, r2, #1
    d3c4:	e241100f 	sub	r1, r1, #15
    d3c8:	e0810502 	add	r0, r1, r2, lsl #10
    d3cc:	e1a00080 	lsl	r0, r0, #1

0000d3d0 <breaktest2>:
    d3d0:	e8bd07ff 	pop	{r0, r1, r2, r3, r4, r5, r6, r7, r8, r9, sl}
    d3d4:	e12fff1e 	bx	lr
    d3d8:	00333300 	.word	0x00333300
    d3dc:	00ffcc99 	.word	0x00ffcc99
    d3e0:	000033ff 	.word	0x000033ff
    d3e4:	00990066 	.word	0x00990066

0000d3e8 <Title>:
    d3e8:	e92d07ff 	push	{r0, r1, r2, r3, r4, r5, r6, r7, r8, r9, sl}
    d3ec:	e3a01f49 	mov	r1, #292	; 0x124
    d3f0:	e3a02010 	mov	r2, #16
    d3f4:	e52de004 	push	{lr}		; (str lr, [sp, #-4]!)
    d3f8:	eb000738 	bl	f0e0 <Drawsgblock16bpp>
    d3fc:	e49de004 	pop	{lr}		; (ldr lr, [sp], #4)
    d400:	e2811008 	add	r1, r1, #8
    d404:	e52de004 	push	{lr}		; (str lr, [sp, #-4]!)
    d408:	eb000734 	bl	f0e0 <Drawsgblock16bpp>
    d40c:	e49de004 	pop	{lr}		; (ldr lr, [sp], #4)
    d410:	e2811020 	add	r1, r1, #32
    d414:	e52de004 	push	{lr}		; (str lr, [sp, #-4]!)
    d418:	eb000730 	bl	f0e0 <Drawsgblock16bpp>
    d41c:	e49de004 	pop	{lr}		; (ldr lr, [sp], #4)
    d420:	e2811008 	add	r1, r1, #8
    d424:	e52de004 	push	{lr}		; (str lr, [sp, #-4]!)
    d428:	eb00072c 	bl	f0e0 <Drawsgblock16bpp>
    d42c:	e49de004 	pop	{lr}		; (ldr lr, [sp], #4)
    d430:	e3a01f49 	mov	r1, #292	; 0x124
    d434:	e2822008 	add	r2, r2, #8
    d438:	e52de004 	push	{lr}		; (str lr, [sp, #-4]!)
    d43c:	eb000727 	bl	f0e0 <Drawsgblock16bpp>
    d440:	e49de004 	pop	{lr}		; (ldr lr, [sp], #4)
    d444:	e2811010 	add	r1, r1, #16
    d448:	e52de004 	push	{lr}		; (str lr, [sp, #-4]!)
    d44c:	eb000723 	bl	f0e0 <Drawsgblock16bpp>
    d450:	e49de004 	pop	{lr}		; (ldr lr, [sp], #4)
    d454:	e2811010 	add	r1, r1, #16
    d458:	e52de004 	push	{lr}		; (str lr, [sp, #-4]!)
    d45c:	eb00071f 	bl	f0e0 <Drawsgblock16bpp>
    d460:	e49de004 	pop	{lr}		; (ldr lr, [sp], #4)
    d464:	e2811010 	add	r1, r1, #16
    d468:	e52de004 	push	{lr}		; (str lr, [sp, #-4]!)
    d46c:	eb00071b 	bl	f0e0 <Drawsgblock16bpp>
    d470:	e49de004 	pop	{lr}		; (ldr lr, [sp], #4)
    d474:	e3a01f49 	mov	r1, #292	; 0x124
    d478:	e2822008 	add	r2, r2, #8
    d47c:	e52de004 	push	{lr}		; (str lr, [sp, #-4]!)
    d480:	eb000716 	bl	f0e0 <Drawsgblock16bpp>
    d484:	e49de004 	pop	{lr}		; (ldr lr, [sp], #4)
    d488:	e2811018 	add	r1, r1, #24
    d48c:	e52de004 	push	{lr}		; (str lr, [sp, #-4]!)
    d490:	eb000712 	bl	f0e0 <Drawsgblock16bpp>
    d494:	e49de004 	pop	{lr}		; (ldr lr, [sp], #4)
    d498:	e2811018 	add	r1, r1, #24
    d49c:	e52de004 	push	{lr}		; (str lr, [sp, #-4]!)
    d4a0:	eb00070e 	bl	f0e0 <Drawsgblock16bpp>
    d4a4:	e49de004 	pop	{lr}		; (ldr lr, [sp], #4)
    d4a8:	e3a01f49 	mov	r1, #292	; 0x124
    d4ac:	e2822008 	add	r2, r2, #8
    d4b0:	e52de004 	push	{lr}		; (str lr, [sp, #-4]!)
    d4b4:	eb000709 	bl	f0e0 <Drawsgblock16bpp>
    d4b8:	e49de004 	pop	{lr}		; (ldr lr, [sp], #4)
    d4bc:	e2811030 	add	r1, r1, #48	; 0x30
    d4c0:	e52de004 	push	{lr}		; (str lr, [sp, #-4]!)
    d4c4:	eb000705 	bl	f0e0 <Drawsgblock16bpp>
    d4c8:	e49de004 	pop	{lr}		; (ldr lr, [sp], #4)
    d4cc:	e3a01f49 	mov	r1, #292	; 0x124
    d4d0:	e2822008 	add	r2, r2, #8
    d4d4:	e52de004 	push	{lr}		; (str lr, [sp, #-4]!)
    d4d8:	eb000700 	bl	f0e0 <Drawsgblock16bpp>
    d4dc:	e49de004 	pop	{lr}		; (ldr lr, [sp], #4)
    d4e0:	e2811030 	add	r1, r1, #48	; 0x30
    d4e4:	e52de004 	push	{lr}		; (str lr, [sp, #-4]!)
    d4e8:	eb0006fc 	bl	f0e0 <Drawsgblock16bpp>
    d4ec:	e49de004 	pop	{lr}		; (ldr lr, [sp], #4)
    d4f0:	e3a01f49 	mov	r1, #292	; 0x124
    d4f4:	e2822008 	add	r2, r2, #8
    d4f8:	e52de004 	push	{lr}		; (str lr, [sp, #-4]!)
    d4fc:	eb0006f7 	bl	f0e0 <Drawsgblock16bpp>
    d500:	e49de004 	pop	{lr}		; (ldr lr, [sp], #4)
    d504:	e2811030 	add	r1, r1, #48	; 0x30
    d508:	e52de004 	push	{lr}		; (str lr, [sp, #-4]!)
    d50c:	eb0006f3 	bl	f0e0 <Drawsgblock16bpp>
    d510:	e49de004 	pop	{lr}		; (ldr lr, [sp], #4)
    d514:	e3a01f49 	mov	r1, #292	; 0x124
    d518:	e2822008 	add	r2, r2, #8
    d51c:	e52de004 	push	{lr}		; (str lr, [sp, #-4]!)
    d520:	eb0006ee 	bl	f0e0 <Drawsgblock16bpp>
    d524:	e49de004 	pop	{lr}		; (ldr lr, [sp], #4)
    d528:	e2811030 	add	r1, r1, #48	; 0x30
    d52c:	e52de004 	push	{lr}		; (str lr, [sp, #-4]!)
    d530:	eb0006ea 	bl	f0e0 <Drawsgblock16bpp>
    d534:	e49de004 	pop	{lr}		; (ldr lr, [sp], #4)
    d538:	e3a01f69 	mov	r1, #420	; 0x1a4
    d53c:	e3a02010 	mov	r2, #16
    d540:	e52de004 	push	{lr}		; (str lr, [sp, #-4]!)
    d544:	eb0006e5 	bl	f0e0 <Drawsgblock16bpp>
    d548:	e49de004 	pop	{lr}		; (ldr lr, [sp], #4)
    d54c:	e2811008 	add	r1, r1, #8
    d550:	e52de004 	push	{lr}		; (str lr, [sp, #-4]!)
    d554:	eb0006e1 	bl	f0e0 <Drawsgblock16bpp>
    d558:	e49de004 	pop	{lr}		; (ldr lr, [sp], #4)
    d55c:	e2811008 	add	r1, r1, #8
    d560:	e52de004 	push	{lr}		; (str lr, [sp, #-4]!)
    d564:	eb0006dd 	bl	f0e0 <Drawsgblock16bpp>
    d568:	e49de004 	pop	{lr}		; (ldr lr, [sp], #4)
    d56c:	e2811008 	add	r1, r1, #8
    d570:	e52de004 	push	{lr}		; (str lr, [sp, #-4]!)
    d574:	eb0006d9 	bl	f0e0 <Drawsgblock16bpp>
    d578:	e49de004 	pop	{lr}		; (ldr lr, [sp], #4)
    d57c:	e2811008 	add	r1, r1, #8
    d580:	e52de004 	push	{lr}		; (str lr, [sp, #-4]!)
    d584:	eb0006d5 	bl	f0e0 <Drawsgblock16bpp>
    d588:	e49de004 	pop	{lr}		; (ldr lr, [sp], #4)
    d58c:	e2811008 	add	r1, r1, #8
    d590:	e52de004 	push	{lr}		; (str lr, [sp, #-4]!)
    d594:	eb0006d1 	bl	f0e0 <Drawsgblock16bpp>
    d598:	e49de004 	pop	{lr}		; (ldr lr, [sp], #4)
    d59c:	e2811008 	add	r1, r1, #8
    d5a0:	e52de004 	push	{lr}		; (str lr, [sp, #-4]!)
    d5a4:	eb0006cd 	bl	f0e0 <Drawsgblock16bpp>
    d5a8:	e49de004 	pop	{lr}		; (ldr lr, [sp], #4)
    d5ac:	e2811008 	add	r1, r1, #8
    d5b0:	e3a01f69 	mov	r1, #420	; 0x1a4
    d5b4:	e2822008 	add	r2, r2, #8
    d5b8:	e52de004 	push	{lr}		; (str lr, [sp, #-4]!)
    d5bc:	eb0006c7 	bl	f0e0 <Drawsgblock16bpp>
    d5c0:	e49de004 	pop	{lr}		; (ldr lr, [sp], #4)
    d5c4:	e2811030 	add	r1, r1, #48	; 0x30
    d5c8:	e52de004 	push	{lr}		; (str lr, [sp, #-4]!)
    d5cc:	eb0006c3 	bl	f0e0 <Drawsgblock16bpp>
    d5d0:	e49de004 	pop	{lr}		; (ldr lr, [sp], #4)
    d5d4:	e3a01f69 	mov	r1, #420	; 0x1a4
    d5d8:	e2822008 	add	r2, r2, #8
    d5dc:	e52de004 	push	{lr}		; (str lr, [sp, #-4]!)
    d5e0:	eb0006be 	bl	f0e0 <Drawsgblock16bpp>
    d5e4:	e49de004 	pop	{lr}		; (ldr lr, [sp], #4)
    d5e8:	e2811030 	add	r1, r1, #48	; 0x30
    d5ec:	e52de004 	push	{lr}		; (str lr, [sp, #-4]!)
    d5f0:	eb0006ba 	bl	f0e0 <Drawsgblock16bpp>
    d5f4:	e49de004 	pop	{lr}		; (ldr lr, [sp], #4)
    d5f8:	e3a01f69 	mov	r1, #420	; 0x1a4
    d5fc:	e2822008 	add	r2, r2, #8
    d600:	e52de004 	push	{lr}		; (str lr, [sp, #-4]!)
    d604:	eb0006b5 	bl	f0e0 <Drawsgblock16bpp>
    d608:	e49de004 	pop	{lr}		; (ldr lr, [sp], #4)
    d60c:	e2811030 	add	r1, r1, #48	; 0x30
    d610:	e52de004 	push	{lr}		; (str lr, [sp, #-4]!)
    d614:	eb0006b1 	bl	f0e0 <Drawsgblock16bpp>
    d618:	e49de004 	pop	{lr}		; (ldr lr, [sp], #4)
    d61c:	e3a01f69 	mov	r1, #420	; 0x1a4
    d620:	e2822008 	add	r2, r2, #8
    d624:	e52de004 	push	{lr}		; (str lr, [sp, #-4]!)
    d628:	eb0006ac 	bl	f0e0 <Drawsgblock16bpp>
    d62c:	e49de004 	pop	{lr}		; (ldr lr, [sp], #4)
    d630:	e2811008 	add	r1, r1, #8
    d634:	e52de004 	push	{lr}		; (str lr, [sp, #-4]!)
    d638:	eb0006a8 	bl	f0e0 <Drawsgblock16bpp>
    d63c:	e49de004 	pop	{lr}		; (ldr lr, [sp], #4)
    d640:	e2811008 	add	r1, r1, #8
    d644:	e52de004 	push	{lr}		; (str lr, [sp, #-4]!)
    d648:	eb0006a4 	bl	f0e0 <Drawsgblock16bpp>
    d64c:	e49de004 	pop	{lr}		; (ldr lr, [sp], #4)
    d650:	e2811008 	add	r1, r1, #8
    d654:	e52de004 	push	{lr}		; (str lr, [sp, #-4]!)
    d658:	eb0006a0 	bl	f0e0 <Drawsgblock16bpp>
    d65c:	e49de004 	pop	{lr}		; (ldr lr, [sp], #4)
    d660:	e2811008 	add	r1, r1, #8
    d664:	e52de004 	push	{lr}		; (str lr, [sp, #-4]!)
    d668:	eb00069c 	bl	f0e0 <Drawsgblock16bpp>
    d66c:	e49de004 	pop	{lr}		; (ldr lr, [sp], #4)
    d670:	e2811008 	add	r1, r1, #8
    d674:	e52de004 	push	{lr}		; (str lr, [sp, #-4]!)
    d678:	eb000698 	bl	f0e0 <Drawsgblock16bpp>
    d67c:	e49de004 	pop	{lr}		; (ldr lr, [sp], #4)
    d680:	e2811008 	add	r1, r1, #8
    d684:	e52de004 	push	{lr}		; (str lr, [sp, #-4]!)
    d688:	eb000694 	bl	f0e0 <Drawsgblock16bpp>
    d68c:	e49de004 	pop	{lr}		; (ldr lr, [sp], #4)
    d690:	e2811008 	add	r1, r1, #8
    d694:	e3a01f69 	mov	r1, #420	; 0x1a4
    d698:	e2822008 	add	r2, r2, #8
    d69c:	e52de004 	push	{lr}		; (str lr, [sp, #-4]!)
    d6a0:	eb00068e 	bl	f0e0 <Drawsgblock16bpp>
    d6a4:	e49de004 	pop	{lr}		; (ldr lr, [sp], #4)
    d6a8:	e2811030 	add	r1, r1, #48	; 0x30
    d6ac:	e52de004 	push	{lr}		; (str lr, [sp, #-4]!)
    d6b0:	eb00068a 	bl	f0e0 <Drawsgblock16bpp>
    d6b4:	e49de004 	pop	{lr}		; (ldr lr, [sp], #4)
    d6b8:	e3a01f69 	mov	r1, #420	; 0x1a4
    d6bc:	e2822008 	add	r2, r2, #8
    d6c0:	e52de004 	push	{lr}		; (str lr, [sp, #-4]!)
    d6c4:	eb000685 	bl	f0e0 <Drawsgblock16bpp>
    d6c8:	e49de004 	pop	{lr}		; (ldr lr, [sp], #4)
    d6cc:	e2811030 	add	r1, r1, #48	; 0x30
    d6d0:	e52de004 	push	{lr}		; (str lr, [sp, #-4]!)
    d6d4:	eb000681 	bl	f0e0 <Drawsgblock16bpp>
    d6d8:	e49de004 	pop	{lr}		; (ldr lr, [sp], #4)
    d6dc:	e3a01f89 	mov	r1, #548	; 0x224
    d6e0:	e3a02010 	mov	r2, #16
    d6e4:	e52de004 	push	{lr}		; (str lr, [sp, #-4]!)
    d6e8:	eb00067c 	bl	f0e0 <Drawsgblock16bpp>
    d6ec:	e49de004 	pop	{lr}		; (ldr lr, [sp], #4)
    d6f0:	e2811008 	add	r1, r1, #8
    d6f4:	e52de004 	push	{lr}		; (str lr, [sp, #-4]!)
    d6f8:	eb000678 	bl	f0e0 <Drawsgblock16bpp>
    d6fc:	e49de004 	pop	{lr}		; (ldr lr, [sp], #4)
    d700:	e2811008 	add	r1, r1, #8
    d704:	e52de004 	push	{lr}		; (str lr, [sp, #-4]!)
    d708:	eb000674 	bl	f0e0 <Drawsgblock16bpp>
    d70c:	e49de004 	pop	{lr}		; (ldr lr, [sp], #4)
    d710:	e2811008 	add	r1, r1, #8
    d714:	e52de004 	push	{lr}		; (str lr, [sp, #-4]!)
    d718:	eb000670 	bl	f0e0 <Drawsgblock16bpp>
    d71c:	e49de004 	pop	{lr}		; (ldr lr, [sp], #4)
    d720:	e2811008 	add	r1, r1, #8
    d724:	e52de004 	push	{lr}		; (str lr, [sp, #-4]!)
    d728:	eb00066c 	bl	f0e0 <Drawsgblock16bpp>
    d72c:	e49de004 	pop	{lr}		; (ldr lr, [sp], #4)
    d730:	e2811008 	add	r1, r1, #8
    d734:	e52de004 	push	{lr}		; (str lr, [sp, #-4]!)
    d738:	eb000668 	bl	f0e0 <Drawsgblock16bpp>
    d73c:	e49de004 	pop	{lr}		; (ldr lr, [sp], #4)
    d740:	e2811008 	add	r1, r1, #8
    d744:	e52de004 	push	{lr}		; (str lr, [sp, #-4]!)
    d748:	eb000664 	bl	f0e0 <Drawsgblock16bpp>
    d74c:	e49de004 	pop	{lr}		; (ldr lr, [sp], #4)
    d750:	e3a01f89 	mov	r1, #548	; 0x224
    d754:	e2822008 	add	r2, r2, #8
    d758:	e2811028 	add	r1, r1, #40	; 0x28
    d75c:	e52de004 	push	{lr}		; (str lr, [sp, #-4]!)
    d760:	eb00065e 	bl	f0e0 <Drawsgblock16bpp>
    d764:	e49de004 	pop	{lr}		; (ldr lr, [sp], #4)
    d768:	e3a01f89 	mov	r1, #548	; 0x224
    d76c:	e2822008 	add	r2, r2, #8
    d770:	e2811020 	add	r1, r1, #32
    d774:	e52de004 	push	{lr}		; (str lr, [sp, #-4]!)
    d778:	eb000658 	bl	f0e0 <Drawsgblock16bpp>
    d77c:	e49de004 	pop	{lr}		; (ldr lr, [sp], #4)
    d780:	e3a01f89 	mov	r1, #548	; 0x224
    d784:	e2822008 	add	r2, r2, #8
    d788:	e2811018 	add	r1, r1, #24
    d78c:	e52de004 	push	{lr}		; (str lr, [sp, #-4]!)
    d790:	eb000652 	bl	f0e0 <Drawsgblock16bpp>
    d794:	e49de004 	pop	{lr}		; (ldr lr, [sp], #4)
    d798:	e3a01f89 	mov	r1, #548	; 0x224
    d79c:	e2822008 	add	r2, r2, #8
    d7a0:	e2811010 	add	r1, r1, #16
    d7a4:	e52de004 	push	{lr}		; (str lr, [sp, #-4]!)
    d7a8:	eb00064c 	bl	f0e0 <Drawsgblock16bpp>
    d7ac:	e49de004 	pop	{lr}		; (ldr lr, [sp], #4)
    d7b0:	e3a01f89 	mov	r1, #548	; 0x224
    d7b4:	e2822008 	add	r2, r2, #8
    d7b8:	e2811008 	add	r1, r1, #8
    d7bc:	e52de004 	push	{lr}		; (str lr, [sp, #-4]!)
    d7c0:	eb000646 	bl	f0e0 <Drawsgblock16bpp>
    d7c4:	e49de004 	pop	{lr}		; (ldr lr, [sp], #4)
    d7c8:	e3a01f89 	mov	r1, #548	; 0x224
    d7cc:	e2822008 	add	r2, r2, #8
    d7d0:	e52de004 	push	{lr}		; (str lr, [sp, #-4]!)
    d7d4:	eb000641 	bl	f0e0 <Drawsgblock16bpp>
    d7d8:	e49de004 	pop	{lr}		; (ldr lr, [sp], #4)
    d7dc:	e2811008 	add	r1, r1, #8
    d7e0:	e52de004 	push	{lr}		; (str lr, [sp, #-4]!)
    d7e4:	eb00063d 	bl	f0e0 <Drawsgblock16bpp>
    d7e8:	e49de004 	pop	{lr}		; (ldr lr, [sp], #4)
    d7ec:	e2811008 	add	r1, r1, #8
    d7f0:	e52de004 	push	{lr}		; (str lr, [sp, #-4]!)
    d7f4:	eb000639 	bl	f0e0 <Drawsgblock16bpp>
    d7f8:	e49de004 	pop	{lr}		; (ldr lr, [sp], #4)
    d7fc:	e2811008 	add	r1, r1, #8
    d800:	e52de004 	push	{lr}		; (str lr, [sp, #-4]!)
    d804:	eb000635 	bl	f0e0 <Drawsgblock16bpp>
    d808:	e49de004 	pop	{lr}		; (ldr lr, [sp], #4)
    d80c:	e2811008 	add	r1, r1, #8
    d810:	e52de004 	push	{lr}		; (str lr, [sp, #-4]!)
    d814:	eb000631 	bl	f0e0 <Drawsgblock16bpp>
    d818:	e49de004 	pop	{lr}		; (ldr lr, [sp], #4)
    d81c:	e2811008 	add	r1, r1, #8
    d820:	e52de004 	push	{lr}		; (str lr, [sp, #-4]!)
    d824:	eb00062d 	bl	f0e0 <Drawsgblock16bpp>
    d828:	e49de004 	pop	{lr}		; (ldr lr, [sp], #4)
    d82c:	e2811008 	add	r1, r1, #8
    d830:	e52de004 	push	{lr}		; (str lr, [sp, #-4]!)
    d834:	eb000629 	bl	f0e0 <Drawsgblock16bpp>
    d838:	e49de004 	pop	{lr}		; (ldr lr, [sp], #4)
    d83c:	e3a01fa9 	mov	r1, #676	; 0x2a4
    d840:	e3a02010 	mov	r2, #16
    d844:	e52de004 	push	{lr}		; (str lr, [sp, #-4]!)
    d848:	eb000624 	bl	f0e0 <Drawsgblock16bpp>
    d84c:	e49de004 	pop	{lr}		; (ldr lr, [sp], #4)
    d850:	e2811008 	add	r1, r1, #8
    d854:	e52de004 	push	{lr}		; (str lr, [sp, #-4]!)
    d858:	eb000620 	bl	f0e0 <Drawsgblock16bpp>
    d85c:	e49de004 	pop	{lr}		; (ldr lr, [sp], #4)
    d860:	e2811008 	add	r1, r1, #8
    d864:	e52de004 	push	{lr}		; (str lr, [sp, #-4]!)
    d868:	eb00061c 	bl	f0e0 <Drawsgblock16bpp>
    d86c:	e49de004 	pop	{lr}		; (ldr lr, [sp], #4)
    d870:	e2811008 	add	r1, r1, #8
    d874:	e52de004 	push	{lr}		; (str lr, [sp, #-4]!)
    d878:	eb000618 	bl	f0e0 <Drawsgblock16bpp>
    d87c:	e49de004 	pop	{lr}		; (ldr lr, [sp], #4)
    d880:	e2811008 	add	r1, r1, #8
    d884:	e52de004 	push	{lr}		; (str lr, [sp, #-4]!)
    d888:	eb000614 	bl	f0e0 <Drawsgblock16bpp>
    d88c:	e49de004 	pop	{lr}		; (ldr lr, [sp], #4)
    d890:	e2811008 	add	r1, r1, #8
    d894:	e52de004 	push	{lr}		; (str lr, [sp, #-4]!)
    d898:	eb000610 	bl	f0e0 <Drawsgblock16bpp>
    d89c:	e49de004 	pop	{lr}		; (ldr lr, [sp], #4)
    d8a0:	e3a01fa9 	mov	r1, #676	; 0x2a4
    d8a4:	e2822008 	add	r2, r2, #8
    d8a8:	e52de004 	push	{lr}		; (str lr, [sp, #-4]!)
    d8ac:	eb00060b 	bl	f0e0 <Drawsgblock16bpp>
    d8b0:	e49de004 	pop	{lr}		; (ldr lr, [sp], #4)
    d8b4:	e3a01fa9 	mov	r1, #676	; 0x2a4
    d8b8:	e2822008 	add	r2, r2, #8
    d8bc:	e52de004 	push	{lr}		; (str lr, [sp, #-4]!)
    d8c0:	eb000606 	bl	f0e0 <Drawsgblock16bpp>
    d8c4:	e49de004 	pop	{lr}		; (ldr lr, [sp], #4)
    d8c8:	e3a01fa9 	mov	r1, #676	; 0x2a4
    d8cc:	e2822008 	add	r2, r2, #8
    d8d0:	e52de004 	push	{lr}		; (str lr, [sp, #-4]!)
    d8d4:	eb000601 	bl	f0e0 <Drawsgblock16bpp>
    d8d8:	e49de004 	pop	{lr}		; (ldr lr, [sp], #4)
    d8dc:	e2811008 	add	r1, r1, #8
    d8e0:	e52de004 	push	{lr}		; (str lr, [sp, #-4]!)
    d8e4:	eb0005fd 	bl	f0e0 <Drawsgblock16bpp>
    d8e8:	e49de004 	pop	{lr}		; (ldr lr, [sp], #4)
    d8ec:	e2811008 	add	r1, r1, #8
    d8f0:	e52de004 	push	{lr}		; (str lr, [sp, #-4]!)
    d8f4:	eb0005f9 	bl	f0e0 <Drawsgblock16bpp>
    d8f8:	e49de004 	pop	{lr}		; (ldr lr, [sp], #4)
    d8fc:	e2811008 	add	r1, r1, #8
    d900:	e52de004 	push	{lr}		; (str lr, [sp, #-4]!)
    d904:	eb0005f5 	bl	f0e0 <Drawsgblock16bpp>
    d908:	e49de004 	pop	{lr}		; (ldr lr, [sp], #4)
    d90c:	e3a01fa9 	mov	r1, #676	; 0x2a4
    d910:	e2822008 	add	r2, r2, #8
    d914:	e52de004 	push	{lr}		; (str lr, [sp, #-4]!)
    d918:	eb0005f0 	bl	f0e0 <Drawsgblock16bpp>
    d91c:	e49de004 	pop	{lr}		; (ldr lr, [sp], #4)
    d920:	e3a01fa9 	mov	r1, #676	; 0x2a4
    d924:	e2822008 	add	r2, r2, #8
    d928:	e52de004 	push	{lr}		; (str lr, [sp, #-4]!)
    d92c:	eb0005eb 	bl	f0e0 <Drawsgblock16bpp>
    d930:	e49de004 	pop	{lr}		; (ldr lr, [sp], #4)
    d934:	e3a01fa9 	mov	r1, #676	; 0x2a4
    d938:	e2822008 	add	r2, r2, #8
    d93c:	e52de004 	push	{lr}		; (str lr, [sp, #-4]!)
    d940:	eb0005e6 	bl	f0e0 <Drawsgblock16bpp>
    d944:	e49de004 	pop	{lr}		; (ldr lr, [sp], #4)
    d948:	e2811008 	add	r1, r1, #8
    d94c:	e52de004 	push	{lr}		; (str lr, [sp, #-4]!)
    d950:	eb0005e2 	bl	f0e0 <Drawsgblock16bpp>
    d954:	e49de004 	pop	{lr}		; (ldr lr, [sp], #4)
    d958:	e2811008 	add	r1, r1, #8
    d95c:	e52de004 	push	{lr}		; (str lr, [sp, #-4]!)
    d960:	eb0005de 	bl	f0e0 <Drawsgblock16bpp>
    d964:	e49de004 	pop	{lr}		; (ldr lr, [sp], #4)
    d968:	e2811008 	add	r1, r1, #8
    d96c:	e52de004 	push	{lr}		; (str lr, [sp, #-4]!)
    d970:	eb0005da 	bl	f0e0 <Drawsgblock16bpp>
    d974:	e49de004 	pop	{lr}		; (ldr lr, [sp], #4)
    d978:	e2811008 	add	r1, r1, #8
    d97c:	e52de004 	push	{lr}		; (str lr, [sp, #-4]!)
    d980:	eb0005d6 	bl	f0e0 <Drawsgblock16bpp>
    d984:	e49de004 	pop	{lr}		; (ldr lr, [sp], #4)
    d988:	e2811008 	add	r1, r1, #8
    d98c:	e52de004 	push	{lr}		; (str lr, [sp, #-4]!)
    d990:	eb0005d2 	bl	f0e0 <Drawsgblock16bpp>
    d994:	e49de004 	pop	{lr}		; (ldr lr, [sp], #4)
    d998:	e8bd07ff 	pop	{r0, r1, r2, r3, r4, r5, r6, r7, r8, r9, sl}
    d99c:	e12fff1e 	bx	lr

0000d9a0 <Drawmaze>:
    d9a0:	e92d07fe 	push	{r1, r2, r3, r4, r5, r6, r7, r8, r9, sl}
    d9a4:	e3a01c01 	mov	r1, #256	; 0x100
    d9a8:	e3a020a0 	mov	r2, #160	; 0xa0
    d9ac:	e3a00000 	mov	r0, #0
    d9b0:	e3a06000 	mov	r6, #0
    d9b4:	e3a07000 	mov	r7, #0

0000d9b8 <printelement>:
    d9b8:	e7d35007 	ldrb	r5, [r3, r7]
    d9bc:	e2800001 	add	r0, r0, #1
    d9c0:	e2877001 	add	r7, r7, #1
    d9c4:	e3550000 	cmp	r5, #0
    d9c8:	e52de004 	push	{lr}		; (str lr, [sp, #-4]!)
    d9cc:	0b0017fb 	bleq	139c0 <Drawwall16bpp>
    d9d0:	e49de004 	pop	{lr}		; (ldr lr, [sp], #4)
    d9d4:	e3550001 	cmp	r5, #1
    d9d8:	e52de004 	push	{lr}		; (str lr, [sp, #-4]!)
    d9dc:	0b0009b9 	bleq	100c8 <Drawdoor16bpp>
    d9e0:	e49de004 	pop	{lr}		; (ldr lr, [sp], #4)
    d9e4:	e3550002 	cmp	r5, #2
    d9e8:	e52de004 	push	{lr}		; (str lr, [sp, #-4]!)
    d9ec:	0b000b49 	bleq	10718 <Drawexit16bpp>
    d9f0:	e49de004 	pop	{lr}		; (ldr lr, [sp], #4)
    d9f4:	e3550003 	cmp	r5, #3
    d9f8:	e52de004 	push	{lr}		; (str lr, [sp, #-4]!)
    d9fc:	0b000ab6 	bleq	104dc <Drawfloor16bpp>
    da00:	e49de004 	pop	{lr}		; (ldr lr, [sp], #4)
    da04:	e3550004 	cmp	r5, #4
    da08:	e52de004 	push	{lr}		; (str lr, [sp, #-4]!)
    da0c:	0b000c46 	bleq	10b2c <Drawkey16bpp>
    da10:	e49de004 	pop	{lr}		; (ldr lr, [sp], #4)
    da14:	e3550005 	cmp	r5, #5
    da18:	e52de004 	push	{lr}		; (str lr, [sp, #-4]!)
    da1c:	0b000b25 	bleq	106b8 <Drawstart16bpp>
    da20:	e49de004 	pop	{lr}		; (ldr lr, [sp], #4)
    da24:	e52de004 	push	{lr}		; (str lr, [sp, #-4]!)
    da28:	0bfffd5c 	bleq	cfa0 <Drawman16bpp>
    da2c:	e49de004 	pop	{lr}		; (ldr lr, [sp], #4)
    da30:	e2811020 	add	r1, r1, #32
    da34:	e3500011 	cmp	r0, #17
    da38:	1affffde 	bne	d9b8 <printelement>
    da3c:	e3a00000 	mov	r0, #0
    da40:	e2822020 	add	r2, r2, #32
    da44:	e2411e22 	sub	r1, r1, #544	; 0x220
    da48:	e2866001 	add	r6, r6, #1
    da4c:	e3560011 	cmp	r6, #17
    da50:	1affffd8 	bne	d9b8 <printelement>
    da54:	e8bd07fe 	pop	{r1, r2, r3, r4, r5, r6, r7, r8, r9, sl}
    da58:	e12fff1e 	bx	lr

0000da5c <EnableJTAG>:
    da5c:	e52de004 	push	{lr}		; (str lr, [sp, #-4]!)
    da60:	e59f0064 	ldr	r0, [pc, #100]	; dacc <dowaitloop+0xc>
    da64:	e0211001 	eor	r1, r1, r1
    da68:	e5801000 	str	r1, [r0]
    da6c:	eb000012 	bl	dabc <dowait>
    da70:	e59f0058 	ldr	r0, [pc, #88]	; dad0 <dowaitloop+0x10>
    da74:	e59f1058 	ldr	r1, [pc, #88]	; dad4 <dowaitloop+0x14>
    da78:	e5801000 	str	r1, [r0]
    da7c:	eb00000e 	bl	dabc <dowait>
    da80:	e0211001 	eor	r1, r1, r1
    da84:	e5801000 	str	r1, [r0]
    da88:	e59f0048 	ldr	r0, [pc, #72]	; dad8 <dowaitloop+0x18>
    da8c:	e5901000 	ldr	r1, [r0]
    da90:	e3c11a07 	bic	r1, r1, #28672	; 0x7000
    da94:	e3811a02 	orr	r1, r1, #8192	; 0x2000
    da98:	e5801000 	str	r1, [r0]
    da9c:	e59f0038 	ldr	r0, [pc, #56]	; dadc <dowaitloop+0x1c>
    daa0:	e5901000 	ldr	r1, [r0]
    daa4:	e59f2034 	ldr	r2, [pc, #52]	; dae0 <dowaitloop+0x20>
    daa8:	e1c11002 	bic	r1, r1, r2
    daac:	e59f2030 	ldr	r2, [pc, #48]	; dae4 <dowaitloop+0x24>
    dab0:	e1811002 	orr	r1, r1, r2
    dab4:	e5801000 	str	r1, [r0]
    dab8:	e49df004 	pop	{pc}		; (ldr pc, [sp], #4)

0000dabc <dowait>:
    dabc:	e3a02f4b 	mov	r2, #300	; 0x12c

0000dac0 <dowaitloop>:
    dac0:	e2522001 	subs	r2, r2, #1
    dac4:	1afffffd 	bne	dac0 <dowaitloop>
    dac8:	e12fff1e 	bx	lr
    dacc:	20200094 	.word	0x20200094
    dad0:	20200098 	.word	0x20200098
    dad4:	0bc00010 	.word	0x0bc00010
    dad8:	20200000 	.word	0x20200000
    dadc:	20200008 	.word	0x20200008
    dae0:	00e3ffc0 	.word	0x00e3ffc0
    dae4:	0061b6c0 	.word	0x0061b6c0

0000dae8 <InitFrameBuffer>:
    dae8:	e59f2054 	ldr	r2, [pc, #84]	; db44 <pointerWaitLoop$+0x10>
    daec:	e59f3054 	ldr	r3, [pc, #84]	; db48 <pointerWaitLoop$+0x14>

0000daf0 <mBoxFullLoop$>:
    daf0:	e5920018 	ldr	r0, [r2, #24]
    daf4:	e3100102 	tst	r0, #-2147483648	; 0x80000000
    daf8:	1afffffc 	bne	daf0 <mBoxFullLoop$>
    dafc:	e2830101 	add	r0, r3, #1073741824	; 0x40000000
    db00:	e3800001 	orr	r0, r0, #1
    db04:	e5820020 	str	r0, [r2, #32]

0000db08 <mBoxEmptyLoop$>:
    db08:	e5920018 	ldr	r0, [r2, #24]
    db0c:	e3100101 	tst	r0, #1073741824	; 0x40000000
    db10:	1afffffc 	bne	db08 <mBoxEmptyLoop$>
    db14:	e5920000 	ldr	r0, [r2]
    db18:	e200100f 	and	r1, r0, #15
    db1c:	e3310001 	teq	r1, #1
    db20:	1afffff8 	bne	db08 <mBoxEmptyLoop$>
    db24:	e3c0100f 	bic	r1, r0, #15
    db28:	e3310000 	teq	r1, #0
    db2c:	13a00000 	movne	r0, #0
    db30:	112fff1e 	bxne	lr

0000db34 <pointerWaitLoop$>:
    db34:	e5930020 	ldr	r0, [r3, #32]
    db38:	e3300000 	teq	r0, #0
    db3c:	0afffffc 	beq	db34 <pointerWaitLoop$>
    db40:	e12fff1e 	bx	lr
    db44:	2000b880 	.word	0x2000b880
    db48:	00009900 	.word	0x00009900

0000db4c <Whitescreen16bpp>:
    db4c:	e92d07fe 	push	{r1, r2, r3, r4, r5, r6, r7, r8, r9, sl}
    db50:	e3a01000 	mov	r1, #0
    db54:	e3a02000 	mov	r2, #0
    db58:	e59f302c 	ldr	r3, [pc, #44]	; db8c <fill+0x1c>
    db5c:	e59f602c 	ldr	r6, [pc, #44]	; db90 <fill+0x20>
    db60:	e3a00000 	mov	r0, #0
    db64:	e0810502 	add	r0, r1, r2, lsl #10
    db68:	e1a00080 	lsl	r0, r0, #1
    db6c:	e3a05000 	mov	r5, #0

0000db70 <fill>:
    db70:	e18430b0 	strh	r3, [r4, r0]
    db74:	e2800001 	add	r0, r0, #1
    db78:	e2855001 	add	r5, r5, #1
    db7c:	e1550006 	cmp	r5, r6
    db80:	1afffffa 	bne	db70 <fill>
    db84:	e8bd07fe 	pop	{r1, r2, r3, r4, r5, r6, r7, r8, r9, sl}
    db88:	e12fff1e 	bx	lr
    db8c:	0000ffff 	.word	0x0000ffff
    db90:	001807fe 	.word	0x001807fe

0000db94 <Win>:
    db94:	e92d07ff 	push	{r0, r1, r2, r3, r4, r5, r6, r7, r8, r9, sl}
    db98:	e52de004 	push	{lr}		; (str lr, [sp, #-4]!)
    db9c:	ebffffea 	bl	db4c <Whitescreen16bpp>
    dba0:	e49de004 	pop	{lr}		; (ldr lr, [sp], #4)
    dba4:	e3a01064 	mov	r1, #100	; 0x64
    dba8:	e3a02064 	mov	r2, #100	; 0x64
    dbac:	e52de004 	push	{lr}		; (str lr, [sp, #-4]!)
    dbb0:	eb000d1f 	bl	11034 <Drawblueblock16bpp>
    dbb4:	e49de004 	pop	{lr}		; (ldr lr, [sp], #4)
    dbb8:	e2811010 	add	r1, r1, #16
    dbbc:	e52de004 	push	{lr}		; (str lr, [sp, #-4]!)
    dbc0:	eb000d1b 	bl	11034 <Drawblueblock16bpp>
    dbc4:	e49de004 	pop	{lr}		; (ldr lr, [sp], #4)
    dbc8:	e2811010 	add	r1, r1, #16
    dbcc:	e52de004 	push	{lr}		; (str lr, [sp, #-4]!)
    dbd0:	eb000d17 	bl	11034 <Drawblueblock16bpp>
    dbd4:	e49de004 	pop	{lr}		; (ldr lr, [sp], #4)
    dbd8:	e2811010 	add	r1, r1, #16
    dbdc:	e52de004 	push	{lr}		; (str lr, [sp, #-4]!)
    dbe0:	eb000d13 	bl	11034 <Drawblueblock16bpp>
    dbe4:	e49de004 	pop	{lr}		; (ldr lr, [sp], #4)
    dbe8:	e2811010 	add	r1, r1, #16
    dbec:	e52de004 	push	{lr}		; (str lr, [sp, #-4]!)
    dbf0:	eb000d0f 	bl	11034 <Drawblueblock16bpp>
    dbf4:	e49de004 	pop	{lr}		; (ldr lr, [sp], #4)
    dbf8:	e2811010 	add	r1, r1, #16
    dbfc:	e52de004 	push	{lr}		; (str lr, [sp, #-4]!)
    dc00:	eb000d0b 	bl	11034 <Drawblueblock16bpp>
    dc04:	e49de004 	pop	{lr}		; (ldr lr, [sp], #4)
    dc08:	e2811010 	add	r1, r1, #16
    dc0c:	e52de004 	push	{lr}		; (str lr, [sp, #-4]!)
    dc10:	eb000d07 	bl	11034 <Drawblueblock16bpp>
    dc14:	e49de004 	pop	{lr}		; (ldr lr, [sp], #4)
    dc18:	e3a01064 	mov	r1, #100	; 0x64
    dc1c:	e2822010 	add	r2, r2, #16
    dc20:	e52de004 	push	{lr}		; (str lr, [sp, #-4]!)
    dc24:	eb000d02 	bl	11034 <Drawblueblock16bpp>
    dc28:	e49de004 	pop	{lr}		; (ldr lr, [sp], #4)
    dc2c:	e3a01064 	mov	r1, #100	; 0x64
    dc30:	e2822010 	add	r2, r2, #16
    dc34:	e52de004 	push	{lr}		; (str lr, [sp, #-4]!)
    dc38:	eb000cfd 	bl	11034 <Drawblueblock16bpp>
    dc3c:	e49de004 	pop	{lr}		; (ldr lr, [sp], #4)
    dc40:	e3a01064 	mov	r1, #100	; 0x64
    dc44:	e2822010 	add	r2, r2, #16
    dc48:	e52de004 	push	{lr}		; (str lr, [sp, #-4]!)
    dc4c:	eb000cf8 	bl	11034 <Drawblueblock16bpp>
    dc50:	e49de004 	pop	{lr}		; (ldr lr, [sp], #4)
    dc54:	e3a01064 	mov	r1, #100	; 0x64
    dc58:	e2822010 	add	r2, r2, #16
    dc5c:	e52de004 	push	{lr}		; (str lr, [sp, #-4]!)
    dc60:	eb000cf3 	bl	11034 <Drawblueblock16bpp>
    dc64:	e49de004 	pop	{lr}		; (ldr lr, [sp], #4)
    dc68:	e2811040 	add	r1, r1, #64	; 0x40
    dc6c:	e52de004 	push	{lr}		; (str lr, [sp, #-4]!)
    dc70:	eb000cef 	bl	11034 <Drawblueblock16bpp>
    dc74:	e49de004 	pop	{lr}		; (ldr lr, [sp], #4)
    dc78:	e2811010 	add	r1, r1, #16
    dc7c:	e52de004 	push	{lr}		; (str lr, [sp, #-4]!)
    dc80:	eb000ceb 	bl	11034 <Drawblueblock16bpp>
    dc84:	e49de004 	pop	{lr}		; (ldr lr, [sp], #4)
    dc88:	e2811010 	add	r1, r1, #16
    dc8c:	e52de004 	push	{lr}		; (str lr, [sp, #-4]!)
    dc90:	eb000ce7 	bl	11034 <Drawblueblock16bpp>
    dc94:	e49de004 	pop	{lr}		; (ldr lr, [sp], #4)
    dc98:	e3a01064 	mov	r1, #100	; 0x64
    dc9c:	e2822010 	add	r2, r2, #16
    dca0:	e52de004 	push	{lr}		; (str lr, [sp, #-4]!)
    dca4:	eb000ce2 	bl	11034 <Drawblueblock16bpp>
    dca8:	e49de004 	pop	{lr}		; (ldr lr, [sp], #4)
    dcac:	e2811060 	add	r1, r1, #96	; 0x60
    dcb0:	e52de004 	push	{lr}		; (str lr, [sp, #-4]!)
    dcb4:	eb000cde 	bl	11034 <Drawblueblock16bpp>
    dcb8:	e49de004 	pop	{lr}		; (ldr lr, [sp], #4)
    dcbc:	e3a01064 	mov	r1, #100	; 0x64
    dcc0:	e2822010 	add	r2, r2, #16
    dcc4:	e52de004 	push	{lr}		; (str lr, [sp, #-4]!)
    dcc8:	eb000cd9 	bl	11034 <Drawblueblock16bpp>
    dccc:	e49de004 	pop	{lr}		; (ldr lr, [sp], #4)
    dcd0:	e2811010 	add	r1, r1, #16
    dcd4:	e52de004 	push	{lr}		; (str lr, [sp, #-4]!)
    dcd8:	eb000cd5 	bl	11034 <Drawblueblock16bpp>
    dcdc:	e49de004 	pop	{lr}		; (ldr lr, [sp], #4)
    dce0:	e2811010 	add	r1, r1, #16
    dce4:	e52de004 	push	{lr}		; (str lr, [sp, #-4]!)
    dce8:	eb000cd1 	bl	11034 <Drawblueblock16bpp>
    dcec:	e49de004 	pop	{lr}		; (ldr lr, [sp], #4)
    dcf0:	e2811010 	add	r1, r1, #16
    dcf4:	e52de004 	push	{lr}		; (str lr, [sp, #-4]!)
    dcf8:	eb000ccd 	bl	11034 <Drawblueblock16bpp>
    dcfc:	e49de004 	pop	{lr}		; (ldr lr, [sp], #4)
    dd00:	e2811010 	add	r1, r1, #16
    dd04:	e52de004 	push	{lr}		; (str lr, [sp, #-4]!)
    dd08:	eb000cc9 	bl	11034 <Drawblueblock16bpp>
    dd0c:	e49de004 	pop	{lr}		; (ldr lr, [sp], #4)
    dd10:	e2811010 	add	r1, r1, #16
    dd14:	e52de004 	push	{lr}		; (str lr, [sp, #-4]!)
    dd18:	eb000cc5 	bl	11034 <Drawblueblock16bpp>
    dd1c:	e49de004 	pop	{lr}		; (ldr lr, [sp], #4)
    dd20:	e2811010 	add	r1, r1, #16
    dd24:	e52de004 	push	{lr}		; (str lr, [sp, #-4]!)
    dd28:	eb000cc1 	bl	11034 <Drawblueblock16bpp>
    dd2c:	e49de004 	pop	{lr}		; (ldr lr, [sp], #4)
    dd30:	e3a010e4 	mov	r1, #228	; 0xe4
    dd34:	e3a02064 	mov	r2, #100	; 0x64
    dd38:	e52de004 	push	{lr}		; (str lr, [sp, #-4]!)
    dd3c:	eb000cbc 	bl	11034 <Drawblueblock16bpp>
    dd40:	e49de004 	pop	{lr}		; (ldr lr, [sp], #4)
    dd44:	e2811010 	add	r1, r1, #16
    dd48:	e52de004 	push	{lr}		; (str lr, [sp, #-4]!)
    dd4c:	eb000cb8 	bl	11034 <Drawblueblock16bpp>
    dd50:	e49de004 	pop	{lr}		; (ldr lr, [sp], #4)
    dd54:	e2811010 	add	r1, r1, #16
    dd58:	e52de004 	push	{lr}		; (str lr, [sp, #-4]!)
    dd5c:	eb000cb4 	bl	11034 <Drawblueblock16bpp>
    dd60:	e49de004 	pop	{lr}		; (ldr lr, [sp], #4)
    dd64:	e2811010 	add	r1, r1, #16
    dd68:	e52de004 	push	{lr}		; (str lr, [sp, #-4]!)
    dd6c:	eb000cb0 	bl	11034 <Drawblueblock16bpp>
    dd70:	e49de004 	pop	{lr}		; (ldr lr, [sp], #4)
    dd74:	e2811010 	add	r1, r1, #16
    dd78:	e52de004 	push	{lr}		; (str lr, [sp, #-4]!)
    dd7c:	eb000cac 	bl	11034 <Drawblueblock16bpp>
    dd80:	e49de004 	pop	{lr}		; (ldr lr, [sp], #4)
    dd84:	e2811010 	add	r1, r1, #16
    dd88:	e52de004 	push	{lr}		; (str lr, [sp, #-4]!)
    dd8c:	eb000ca8 	bl	11034 <Drawblueblock16bpp>
    dd90:	e49de004 	pop	{lr}		; (ldr lr, [sp], #4)
    dd94:	e2811010 	add	r1, r1, #16
    dd98:	e52de004 	push	{lr}		; (str lr, [sp, #-4]!)
    dd9c:	eb000ca4 	bl	11034 <Drawblueblock16bpp>
    dda0:	e49de004 	pop	{lr}		; (ldr lr, [sp], #4)
    dda4:	e2811010 	add	r1, r1, #16
    dda8:	e3a010e4 	mov	r1, #228	; 0xe4
    ddac:	e2822010 	add	r2, r2, #16
    ddb0:	e52de004 	push	{lr}		; (str lr, [sp, #-4]!)
    ddb4:	eb000c9e 	bl	11034 <Drawblueblock16bpp>
    ddb8:	e49de004 	pop	{lr}		; (ldr lr, [sp], #4)
    ddbc:	e2811060 	add	r1, r1, #96	; 0x60
    ddc0:	e52de004 	push	{lr}		; (str lr, [sp, #-4]!)
    ddc4:	eb000c9a 	bl	11034 <Drawblueblock16bpp>
    ddc8:	e49de004 	pop	{lr}		; (ldr lr, [sp], #4)
    ddcc:	e3a010e4 	mov	r1, #228	; 0xe4
    ddd0:	e2822010 	add	r2, r2, #16
    ddd4:	e52de004 	push	{lr}		; (str lr, [sp, #-4]!)
    ddd8:	eb000c95 	bl	11034 <Drawblueblock16bpp>
    dddc:	e49de004 	pop	{lr}		; (ldr lr, [sp], #4)
    dde0:	e2811060 	add	r1, r1, #96	; 0x60
    dde4:	e52de004 	push	{lr}		; (str lr, [sp, #-4]!)
    dde8:	eb000c91 	bl	11034 <Drawblueblock16bpp>
    ddec:	e49de004 	pop	{lr}		; (ldr lr, [sp], #4)
    ddf0:	e3a010e4 	mov	r1, #228	; 0xe4
    ddf4:	e2822010 	add	r2, r2, #16
    ddf8:	e52de004 	push	{lr}		; (str lr, [sp, #-4]!)
    ddfc:	eb000c8c 	bl	11034 <Drawblueblock16bpp>
    de00:	e49de004 	pop	{lr}		; (ldr lr, [sp], #4)
    de04:	e2811060 	add	r1, r1, #96	; 0x60
    de08:	e52de004 	push	{lr}		; (str lr, [sp, #-4]!)
    de0c:	eb000c88 	bl	11034 <Drawblueblock16bpp>
    de10:	e49de004 	pop	{lr}		; (ldr lr, [sp], #4)
    de14:	e3a010e4 	mov	r1, #228	; 0xe4
    de18:	e2822010 	add	r2, r2, #16
    de1c:	e52de004 	push	{lr}		; (str lr, [sp, #-4]!)
    de20:	eb000c83 	bl	11034 <Drawblueblock16bpp>
    de24:	e49de004 	pop	{lr}		; (ldr lr, [sp], #4)
    de28:	e2811010 	add	r1, r1, #16
    de2c:	e52de004 	push	{lr}		; (str lr, [sp, #-4]!)
    de30:	eb000c7f 	bl	11034 <Drawblueblock16bpp>
    de34:	e49de004 	pop	{lr}		; (ldr lr, [sp], #4)
    de38:	e2811010 	add	r1, r1, #16
    de3c:	e52de004 	push	{lr}		; (str lr, [sp, #-4]!)
    de40:	eb000c7b 	bl	11034 <Drawblueblock16bpp>
    de44:	e49de004 	pop	{lr}		; (ldr lr, [sp], #4)
    de48:	e2811010 	add	r1, r1, #16
    de4c:	e52de004 	push	{lr}		; (str lr, [sp, #-4]!)
    de50:	eb000c77 	bl	11034 <Drawblueblock16bpp>
    de54:	e49de004 	pop	{lr}		; (ldr lr, [sp], #4)
    de58:	e2811010 	add	r1, r1, #16
    de5c:	e52de004 	push	{lr}		; (str lr, [sp, #-4]!)
    de60:	eb000c73 	bl	11034 <Drawblueblock16bpp>
    de64:	e49de004 	pop	{lr}		; (ldr lr, [sp], #4)
    de68:	e2811010 	add	r1, r1, #16
    de6c:	e52de004 	push	{lr}		; (str lr, [sp, #-4]!)
    de70:	eb000c6f 	bl	11034 <Drawblueblock16bpp>
    de74:	e49de004 	pop	{lr}		; (ldr lr, [sp], #4)
    de78:	e2811010 	add	r1, r1, #16
    de7c:	e52de004 	push	{lr}		; (str lr, [sp, #-4]!)
    de80:	eb000c6b 	bl	11034 <Drawblueblock16bpp>
    de84:	e49de004 	pop	{lr}		; (ldr lr, [sp], #4)
    de88:	e2811010 	add	r1, r1, #16
    de8c:	e3a010e4 	mov	r1, #228	; 0xe4
    de90:	e2822010 	add	r2, r2, #16
    de94:	e52de004 	push	{lr}		; (str lr, [sp, #-4]!)
    de98:	eb000c65 	bl	11034 <Drawblueblock16bpp>
    de9c:	e49de004 	pop	{lr}		; (ldr lr, [sp], #4)
    dea0:	e2811060 	add	r1, r1, #96	; 0x60
    dea4:	e52de004 	push	{lr}		; (str lr, [sp, #-4]!)
    dea8:	eb000c61 	bl	11034 <Drawblueblock16bpp>
    deac:	e49de004 	pop	{lr}		; (ldr lr, [sp], #4)
    deb0:	e3a010e4 	mov	r1, #228	; 0xe4
    deb4:	e2822010 	add	r2, r2, #16
    deb8:	e52de004 	push	{lr}		; (str lr, [sp, #-4]!)
    debc:	eb000c5c 	bl	11034 <Drawblueblock16bpp>
    dec0:	e49de004 	pop	{lr}		; (ldr lr, [sp], #4)
    dec4:	e2811060 	add	r1, r1, #96	; 0x60
    dec8:	e52de004 	push	{lr}		; (str lr, [sp, #-4]!)
    decc:	eb000c58 	bl	11034 <Drawblueblock16bpp>
    ded0:	e49de004 	pop	{lr}		; (ldr lr, [sp], #4)
    ded4:	e3a01f59 	mov	r1, #356	; 0x164
    ded8:	e3a02064 	mov	r2, #100	; 0x64
    dedc:	e52de004 	push	{lr}		; (str lr, [sp, #-4]!)
    dee0:	eb000c53 	bl	11034 <Drawblueblock16bpp>
    dee4:	e49de004 	pop	{lr}		; (ldr lr, [sp], #4)
    dee8:	e2811010 	add	r1, r1, #16
    deec:	e52de004 	push	{lr}		; (str lr, [sp, #-4]!)
    def0:	eb000c4f 	bl	11034 <Drawblueblock16bpp>
    def4:	e49de004 	pop	{lr}		; (ldr lr, [sp], #4)
    def8:	e2811040 	add	r1, r1, #64	; 0x40
    defc:	e52de004 	push	{lr}		; (str lr, [sp, #-4]!)
    df00:	eb000c4b 	bl	11034 <Drawblueblock16bpp>
    df04:	e49de004 	pop	{lr}		; (ldr lr, [sp], #4)
    df08:	e2811010 	add	r1, r1, #16
    df0c:	e52de004 	push	{lr}		; (str lr, [sp, #-4]!)
    df10:	eb000c47 	bl	11034 <Drawblueblock16bpp>
    df14:	e49de004 	pop	{lr}		; (ldr lr, [sp], #4)
    df18:	e3a01f59 	mov	r1, #356	; 0x164
    df1c:	e2822010 	add	r2, r2, #16
    df20:	e52de004 	push	{lr}		; (str lr, [sp, #-4]!)
    df24:	eb000c42 	bl	11034 <Drawblueblock16bpp>
    df28:	e49de004 	pop	{lr}		; (ldr lr, [sp], #4)
    df2c:	e2811020 	add	r1, r1, #32
    df30:	e52de004 	push	{lr}		; (str lr, [sp, #-4]!)
    df34:	eb000c3e 	bl	11034 <Drawblueblock16bpp>
    df38:	e49de004 	pop	{lr}		; (ldr lr, [sp], #4)
    df3c:	e2811020 	add	r1, r1, #32
    df40:	e52de004 	push	{lr}		; (str lr, [sp, #-4]!)
    df44:	eb000c3a 	bl	11034 <Drawblueblock16bpp>
    df48:	e49de004 	pop	{lr}		; (ldr lr, [sp], #4)
    df4c:	e2811020 	add	r1, r1, #32
    df50:	e52de004 	push	{lr}		; (str lr, [sp, #-4]!)
    df54:	eb000c36 	bl	11034 <Drawblueblock16bpp>
    df58:	e49de004 	pop	{lr}		; (ldr lr, [sp], #4)
    df5c:	e3a01f59 	mov	r1, #356	; 0x164
    df60:	e2822010 	add	r2, r2, #16
    df64:	e52de004 	push	{lr}		; (str lr, [sp, #-4]!)
    df68:	eb000c31 	bl	11034 <Drawblueblock16bpp>
    df6c:	e49de004 	pop	{lr}		; (ldr lr, [sp], #4)
    df70:	e2811030 	add	r1, r1, #48	; 0x30
    df74:	e52de004 	push	{lr}		; (str lr, [sp, #-4]!)
    df78:	eb000c2d 	bl	11034 <Drawblueblock16bpp>
    df7c:	e49de004 	pop	{lr}		; (ldr lr, [sp], #4)
    df80:	e2811030 	add	r1, r1, #48	; 0x30
    df84:	e52de004 	push	{lr}		; (str lr, [sp, #-4]!)
    df88:	eb000c29 	bl	11034 <Drawblueblock16bpp>
    df8c:	e49de004 	pop	{lr}		; (ldr lr, [sp], #4)
    df90:	e3a01f59 	mov	r1, #356	; 0x164
    df94:	e2822010 	add	r2, r2, #16
    df98:	e52de004 	push	{lr}		; (str lr, [sp, #-4]!)
    df9c:	eb000c24 	bl	11034 <Drawblueblock16bpp>
    dfa0:	e49de004 	pop	{lr}		; (ldr lr, [sp], #4)
    dfa4:	e2811060 	add	r1, r1, #96	; 0x60
    dfa8:	e52de004 	push	{lr}		; (str lr, [sp, #-4]!)
    dfac:	eb000c20 	bl	11034 <Drawblueblock16bpp>
    dfb0:	e49de004 	pop	{lr}		; (ldr lr, [sp], #4)
    dfb4:	e3a01f59 	mov	r1, #356	; 0x164
    dfb8:	e2822010 	add	r2, r2, #16
    dfbc:	e52de004 	push	{lr}		; (str lr, [sp, #-4]!)
    dfc0:	eb000c1b 	bl	11034 <Drawblueblock16bpp>
    dfc4:	e49de004 	pop	{lr}		; (ldr lr, [sp], #4)
    dfc8:	e2811060 	add	r1, r1, #96	; 0x60
    dfcc:	e52de004 	push	{lr}		; (str lr, [sp, #-4]!)
    dfd0:	eb000c17 	bl	11034 <Drawblueblock16bpp>
    dfd4:	e49de004 	pop	{lr}		; (ldr lr, [sp], #4)
    dfd8:	e3a01f59 	mov	r1, #356	; 0x164
    dfdc:	e2822010 	add	r2, r2, #16
    dfe0:	e52de004 	push	{lr}		; (str lr, [sp, #-4]!)
    dfe4:	eb000c12 	bl	11034 <Drawblueblock16bpp>
    dfe8:	e49de004 	pop	{lr}		; (ldr lr, [sp], #4)
    dfec:	e2811060 	add	r1, r1, #96	; 0x60
    dff0:	e52de004 	push	{lr}		; (str lr, [sp, #-4]!)
    dff4:	eb000c0e 	bl	11034 <Drawblueblock16bpp>
    dff8:	e49de004 	pop	{lr}		; (ldr lr, [sp], #4)
    dffc:	e3a01f59 	mov	r1, #356	; 0x164
    e000:	e2822010 	add	r2, r2, #16
    e004:	e52de004 	push	{lr}		; (str lr, [sp, #-4]!)
    e008:	eb000c09 	bl	11034 <Drawblueblock16bpp>
    e00c:	e49de004 	pop	{lr}		; (ldr lr, [sp], #4)
    e010:	e2811060 	add	r1, r1, #96	; 0x60
    e014:	e52de004 	push	{lr}		; (str lr, [sp, #-4]!)
    e018:	eb000c05 	bl	11034 <Drawblueblock16bpp>
    e01c:	e49de004 	pop	{lr}		; (ldr lr, [sp], #4)
    e020:	e3a01f79 	mov	r1, #484	; 0x1e4
    e024:	e3a02064 	mov	r2, #100	; 0x64
    e028:	e52de004 	push	{lr}		; (str lr, [sp, #-4]!)
    e02c:	eb000c00 	bl	11034 <Drawblueblock16bpp>
    e030:	e49de004 	pop	{lr}		; (ldr lr, [sp], #4)
    e034:	e2811010 	add	r1, r1, #16
    e038:	e52de004 	push	{lr}		; (str lr, [sp, #-4]!)
    e03c:	eb000bfc 	bl	11034 <Drawblueblock16bpp>
    e040:	e49de004 	pop	{lr}		; (ldr lr, [sp], #4)
    e044:	e2811010 	add	r1, r1, #16
    e048:	e52de004 	push	{lr}		; (str lr, [sp, #-4]!)
    e04c:	eb000bf8 	bl	11034 <Drawblueblock16bpp>
    e050:	e49de004 	pop	{lr}		; (ldr lr, [sp], #4)
    e054:	e2811010 	add	r1, r1, #16
    e058:	e52de004 	push	{lr}		; (str lr, [sp, #-4]!)
    e05c:	eb000bf4 	bl	11034 <Drawblueblock16bpp>
    e060:	e49de004 	pop	{lr}		; (ldr lr, [sp], #4)
    e064:	e2811010 	add	r1, r1, #16
    e068:	e52de004 	push	{lr}		; (str lr, [sp, #-4]!)
    e06c:	eb000bf0 	bl	11034 <Drawblueblock16bpp>
    e070:	e49de004 	pop	{lr}		; (ldr lr, [sp], #4)
    e074:	e2811010 	add	r1, r1, #16
    e078:	e52de004 	push	{lr}		; (str lr, [sp, #-4]!)
    e07c:	eb000bec 	bl	11034 <Drawblueblock16bpp>
    e080:	e49de004 	pop	{lr}		; (ldr lr, [sp], #4)
    e084:	e3a01f79 	mov	r1, #484	; 0x1e4
    e088:	e2822010 	add	r2, r2, #16
    e08c:	e52de004 	push	{lr}		; (str lr, [sp, #-4]!)
    e090:	eb000be7 	bl	11034 <Drawblueblock16bpp>
    e094:	e49de004 	pop	{lr}		; (ldr lr, [sp], #4)
    e098:	e3a01f79 	mov	r1, #484	; 0x1e4
    e09c:	e2822010 	add	r2, r2, #16
    e0a0:	e52de004 	push	{lr}		; (str lr, [sp, #-4]!)
    e0a4:	eb000be2 	bl	11034 <Drawblueblock16bpp>
    e0a8:	e49de004 	pop	{lr}		; (ldr lr, [sp], #4)
    e0ac:	e3a01f79 	mov	r1, #484	; 0x1e4
    e0b0:	e2822010 	add	r2, r2, #16
    e0b4:	e52de004 	push	{lr}		; (str lr, [sp, #-4]!)
    e0b8:	eb000bdd 	bl	11034 <Drawblueblock16bpp>
    e0bc:	e49de004 	pop	{lr}		; (ldr lr, [sp], #4)
    e0c0:	e2811010 	add	r1, r1, #16
    e0c4:	e52de004 	push	{lr}		; (str lr, [sp, #-4]!)
    e0c8:	eb000bd9 	bl	11034 <Drawblueblock16bpp>
    e0cc:	e49de004 	pop	{lr}		; (ldr lr, [sp], #4)
    e0d0:	e2811010 	add	r1, r1, #16
    e0d4:	e52de004 	push	{lr}		; (str lr, [sp, #-4]!)
    e0d8:	eb000bd5 	bl	11034 <Drawblueblock16bpp>
    e0dc:	e49de004 	pop	{lr}		; (ldr lr, [sp], #4)
    e0e0:	e2811010 	add	r1, r1, #16
    e0e4:	e52de004 	push	{lr}		; (str lr, [sp, #-4]!)
    e0e8:	eb000bd1 	bl	11034 <Drawblueblock16bpp>
    e0ec:	e49de004 	pop	{lr}		; (ldr lr, [sp], #4)
    e0f0:	e3a01f79 	mov	r1, #484	; 0x1e4
    e0f4:	e2822010 	add	r2, r2, #16
    e0f8:	e52de004 	push	{lr}		; (str lr, [sp, #-4]!)
    e0fc:	eb000bcc 	bl	11034 <Drawblueblock16bpp>
    e100:	e49de004 	pop	{lr}		; (ldr lr, [sp], #4)
    e104:	e3a01f79 	mov	r1, #484	; 0x1e4
    e108:	e2822010 	add	r2, r2, #16
    e10c:	e52de004 	push	{lr}		; (str lr, [sp, #-4]!)
    e110:	eb000bc7 	bl	11034 <Drawblueblock16bpp>
    e114:	e49de004 	pop	{lr}		; (ldr lr, [sp], #4)
    e118:	e3a01f79 	mov	r1, #484	; 0x1e4
    e11c:	e2822010 	add	r2, r2, #16
    e120:	e52de004 	push	{lr}		; (str lr, [sp, #-4]!)
    e124:	eb000bc2 	bl	11034 <Drawblueblock16bpp>
    e128:	e49de004 	pop	{lr}		; (ldr lr, [sp], #4)
    e12c:	e2811010 	add	r1, r1, #16
    e130:	e52de004 	push	{lr}		; (str lr, [sp, #-4]!)
    e134:	eb000bbe 	bl	11034 <Drawblueblock16bpp>
    e138:	e49de004 	pop	{lr}		; (ldr lr, [sp], #4)
    e13c:	e2811010 	add	r1, r1, #16
    e140:	e52de004 	push	{lr}		; (str lr, [sp, #-4]!)
    e144:	eb000bba 	bl	11034 <Drawblueblock16bpp>
    e148:	e49de004 	pop	{lr}		; (ldr lr, [sp], #4)
    e14c:	e2811010 	add	r1, r1, #16
    e150:	e52de004 	push	{lr}		; (str lr, [sp, #-4]!)
    e154:	eb000bb6 	bl	11034 <Drawblueblock16bpp>
    e158:	e49de004 	pop	{lr}		; (ldr lr, [sp], #4)
    e15c:	e2811010 	add	r1, r1, #16
    e160:	e52de004 	push	{lr}		; (str lr, [sp, #-4]!)
    e164:	eb000bb2 	bl	11034 <Drawblueblock16bpp>
    e168:	e49de004 	pop	{lr}		; (ldr lr, [sp], #4)
    e16c:	e2811010 	add	r1, r1, #16
    e170:	e52de004 	push	{lr}		; (str lr, [sp, #-4]!)
    e174:	eb000bae 	bl	11034 <Drawblueblock16bpp>
    e178:	e49de004 	pop	{lr}		; (ldr lr, [sp], #4)
    e17c:	e3a010e4 	mov	r1, #228	; 0xe4
    e180:	e3a020e4 	mov	r2, #228	; 0xe4
    e184:	e52de004 	push	{lr}		; (str lr, [sp, #-4]!)
    e188:	eb000ba9 	bl	11034 <Drawblueblock16bpp>
    e18c:	e49de004 	pop	{lr}		; (ldr lr, [sp], #4)
    e190:	e2811010 	add	r1, r1, #16
    e194:	e52de004 	push	{lr}		; (str lr, [sp, #-4]!)
    e198:	eb000ba5 	bl	11034 <Drawblueblock16bpp>
    e19c:	e49de004 	pop	{lr}		; (ldr lr, [sp], #4)
    e1a0:	e2811010 	add	r1, r1, #16
    e1a4:	e52de004 	push	{lr}		; (str lr, [sp, #-4]!)
    e1a8:	eb000ba1 	bl	11034 <Drawblueblock16bpp>
    e1ac:	e49de004 	pop	{lr}		; (ldr lr, [sp], #4)
    e1b0:	e2811010 	add	r1, r1, #16
    e1b4:	e52de004 	push	{lr}		; (str lr, [sp, #-4]!)
    e1b8:	eb000b9d 	bl	11034 <Drawblueblock16bpp>
    e1bc:	e49de004 	pop	{lr}		; (ldr lr, [sp], #4)
    e1c0:	e2811010 	add	r1, r1, #16
    e1c4:	e52de004 	push	{lr}		; (str lr, [sp, #-4]!)
    e1c8:	eb000b99 	bl	11034 <Drawblueblock16bpp>
    e1cc:	e49de004 	pop	{lr}		; (ldr lr, [sp], #4)
    e1d0:	e2811010 	add	r1, r1, #16
    e1d4:	e52de004 	push	{lr}		; (str lr, [sp, #-4]!)
    e1d8:	eb000b95 	bl	11034 <Drawblueblock16bpp>
    e1dc:	e49de004 	pop	{lr}		; (ldr lr, [sp], #4)
    e1e0:	e2811010 	add	r1, r1, #16
    e1e4:	e52de004 	push	{lr}		; (str lr, [sp, #-4]!)
    e1e8:	eb000b91 	bl	11034 <Drawblueblock16bpp>
    e1ec:	e49de004 	pop	{lr}		; (ldr lr, [sp], #4)
    e1f0:	e3a010e4 	mov	r1, #228	; 0xe4
    e1f4:	e2822010 	add	r2, r2, #16
    e1f8:	e52de004 	push	{lr}		; (str lr, [sp, #-4]!)
    e1fc:	eb000b8c 	bl	11034 <Drawblueblock16bpp>
    e200:	e49de004 	pop	{lr}		; (ldr lr, [sp], #4)
    e204:	e2811060 	add	r1, r1, #96	; 0x60
    e208:	e52de004 	push	{lr}		; (str lr, [sp, #-4]!)
    e20c:	eb000b88 	bl	11034 <Drawblueblock16bpp>
    e210:	e49de004 	pop	{lr}		; (ldr lr, [sp], #4)
    e214:	e3a010e4 	mov	r1, #228	; 0xe4
    e218:	e2822010 	add	r2, r2, #16
    e21c:	e52de004 	push	{lr}		; (str lr, [sp, #-4]!)
    e220:	eb000b83 	bl	11034 <Drawblueblock16bpp>
    e224:	e49de004 	pop	{lr}		; (ldr lr, [sp], #4)
    e228:	e2811060 	add	r1, r1, #96	; 0x60
    e22c:	e52de004 	push	{lr}		; (str lr, [sp, #-4]!)
    e230:	eb000b7f 	bl	11034 <Drawblueblock16bpp>
    e234:	e49de004 	pop	{lr}		; (ldr lr, [sp], #4)
    e238:	e3a010e4 	mov	r1, #228	; 0xe4
    e23c:	e2822010 	add	r2, r2, #16
    e240:	e52de004 	push	{lr}		; (str lr, [sp, #-4]!)
    e244:	eb000b7a 	bl	11034 <Drawblueblock16bpp>
    e248:	e49de004 	pop	{lr}		; (ldr lr, [sp], #4)
    e24c:	e2811060 	add	r1, r1, #96	; 0x60
    e250:	e52de004 	push	{lr}		; (str lr, [sp, #-4]!)
    e254:	eb000b76 	bl	11034 <Drawblueblock16bpp>
    e258:	e49de004 	pop	{lr}		; (ldr lr, [sp], #4)
    e25c:	e3a010e4 	mov	r1, #228	; 0xe4
    e260:	e2822010 	add	r2, r2, #16
    e264:	e52de004 	push	{lr}		; (str lr, [sp, #-4]!)
    e268:	eb000b71 	bl	11034 <Drawblueblock16bpp>
    e26c:	e49de004 	pop	{lr}		; (ldr lr, [sp], #4)
    e270:	e2811060 	add	r1, r1, #96	; 0x60
    e274:	e52de004 	push	{lr}		; (str lr, [sp, #-4]!)
    e278:	eb000b6d 	bl	11034 <Drawblueblock16bpp>
    e27c:	e49de004 	pop	{lr}		; (ldr lr, [sp], #4)
    e280:	e3a010e4 	mov	r1, #228	; 0xe4
    e284:	e2822010 	add	r2, r2, #16
    e288:	e52de004 	push	{lr}		; (str lr, [sp, #-4]!)
    e28c:	eb000b68 	bl	11034 <Drawblueblock16bpp>
    e290:	e49de004 	pop	{lr}		; (ldr lr, [sp], #4)
    e294:	e2811060 	add	r1, r1, #96	; 0x60
    e298:	e52de004 	push	{lr}		; (str lr, [sp, #-4]!)
    e29c:	eb000b64 	bl	11034 <Drawblueblock16bpp>
    e2a0:	e49de004 	pop	{lr}		; (ldr lr, [sp], #4)
    e2a4:	e3a010e4 	mov	r1, #228	; 0xe4
    e2a8:	e2822010 	add	r2, r2, #16
    e2ac:	e52de004 	push	{lr}		; (str lr, [sp, #-4]!)
    e2b0:	eb000b5f 	bl	11034 <Drawblueblock16bpp>
    e2b4:	e49de004 	pop	{lr}		; (ldr lr, [sp], #4)
    e2b8:	e2811010 	add	r1, r1, #16
    e2bc:	e52de004 	push	{lr}		; (str lr, [sp, #-4]!)
    e2c0:	eb000b5b 	bl	11034 <Drawblueblock16bpp>
    e2c4:	e49de004 	pop	{lr}		; (ldr lr, [sp], #4)
    e2c8:	e2811010 	add	r1, r1, #16
    e2cc:	e52de004 	push	{lr}		; (str lr, [sp, #-4]!)
    e2d0:	eb000b57 	bl	11034 <Drawblueblock16bpp>
    e2d4:	e49de004 	pop	{lr}		; (ldr lr, [sp], #4)
    e2d8:	e2811010 	add	r1, r1, #16
    e2dc:	e52de004 	push	{lr}		; (str lr, [sp, #-4]!)
    e2e0:	eb000b53 	bl	11034 <Drawblueblock16bpp>
    e2e4:	e49de004 	pop	{lr}		; (ldr lr, [sp], #4)
    e2e8:	e2811010 	add	r1, r1, #16
    e2ec:	e52de004 	push	{lr}		; (str lr, [sp, #-4]!)
    e2f0:	eb000b4f 	bl	11034 <Drawblueblock16bpp>
    e2f4:	e49de004 	pop	{lr}		; (ldr lr, [sp], #4)
    e2f8:	e2811010 	add	r1, r1, #16
    e2fc:	e52de004 	push	{lr}		; (str lr, [sp, #-4]!)
    e300:	eb000b4b 	bl	11034 <Drawblueblock16bpp>
    e304:	e49de004 	pop	{lr}		; (ldr lr, [sp], #4)
    e308:	e2811010 	add	r1, r1, #16
    e30c:	e52de004 	push	{lr}		; (str lr, [sp, #-4]!)
    e310:	eb000b47 	bl	11034 <Drawblueblock16bpp>
    e314:	e49de004 	pop	{lr}		; (ldr lr, [sp], #4)
    e318:	e3a01f59 	mov	r1, #356	; 0x164
    e31c:	e3a020e4 	mov	r2, #228	; 0xe4
    e320:	e52de004 	push	{lr}		; (str lr, [sp, #-4]!)
    e324:	eb000b42 	bl	11034 <Drawblueblock16bpp>
    e328:	e49de004 	pop	{lr}		; (ldr lr, [sp], #4)
    e32c:	e2811060 	add	r1, r1, #96	; 0x60
    e330:	e52de004 	push	{lr}		; (str lr, [sp, #-4]!)
    e334:	eb000b3e 	bl	11034 <Drawblueblock16bpp>
    e338:	e49de004 	pop	{lr}		; (ldr lr, [sp], #4)
    e33c:	e3a01f59 	mov	r1, #356	; 0x164
    e340:	e2822010 	add	r2, r2, #16
    e344:	e52de004 	push	{lr}		; (str lr, [sp, #-4]!)
    e348:	eb000b39 	bl	11034 <Drawblueblock16bpp>
    e34c:	e49de004 	pop	{lr}		; (ldr lr, [sp], #4)
    e350:	e2811060 	add	r1, r1, #96	; 0x60
    e354:	e52de004 	push	{lr}		; (str lr, [sp, #-4]!)
    e358:	eb000b35 	bl	11034 <Drawblueblock16bpp>
    e35c:	e49de004 	pop	{lr}		; (ldr lr, [sp], #4)
    e360:	e3a01f5d 	mov	r1, #372	; 0x174
    e364:	e2822010 	add	r2, r2, #16
    e368:	e52de004 	push	{lr}		; (str lr, [sp, #-4]!)
    e36c:	eb000b30 	bl	11034 <Drawblueblock16bpp>
    e370:	e49de004 	pop	{lr}		; (ldr lr, [sp], #4)
    e374:	e2811040 	add	r1, r1, #64	; 0x40
    e378:	e52de004 	push	{lr}		; (str lr, [sp, #-4]!)
    e37c:	eb000b2c 	bl	11034 <Drawblueblock16bpp>
    e380:	e49de004 	pop	{lr}		; (ldr lr, [sp], #4)
    e384:	e3a01f5d 	mov	r1, #372	; 0x174
    e388:	e2822010 	add	r2, r2, #16
    e38c:	e52de004 	push	{lr}		; (str lr, [sp, #-4]!)
    e390:	eb000b27 	bl	11034 <Drawblueblock16bpp>
    e394:	e49de004 	pop	{lr}		; (ldr lr, [sp], #4)
    e398:	e2811040 	add	r1, r1, #64	; 0x40
    e39c:	e52de004 	push	{lr}		; (str lr, [sp, #-4]!)
    e3a0:	eb000b23 	bl	11034 <Drawblueblock16bpp>
    e3a4:	e49de004 	pop	{lr}		; (ldr lr, [sp], #4)
    e3a8:	e3a01f61 	mov	r1, #388	; 0x184
    e3ac:	e2822010 	add	r2, r2, #16
    e3b0:	e52de004 	push	{lr}		; (str lr, [sp, #-4]!)
    e3b4:	eb000b1e 	bl	11034 <Drawblueblock16bpp>
    e3b8:	e49de004 	pop	{lr}		; (ldr lr, [sp], #4)
    e3bc:	e2811020 	add	r1, r1, #32
    e3c0:	e52de004 	push	{lr}		; (str lr, [sp, #-4]!)
    e3c4:	eb000b1a 	bl	11034 <Drawblueblock16bpp>
    e3c8:	e49de004 	pop	{lr}		; (ldr lr, [sp], #4)
    e3cc:	e3a01f61 	mov	r1, #388	; 0x184
    e3d0:	e2822010 	add	r2, r2, #16
    e3d4:	e52de004 	push	{lr}		; (str lr, [sp, #-4]!)
    e3d8:	eb000b15 	bl	11034 <Drawblueblock16bpp>
    e3dc:	e49de004 	pop	{lr}		; (ldr lr, [sp], #4)
    e3e0:	e2811020 	add	r1, r1, #32
    e3e4:	e52de004 	push	{lr}		; (str lr, [sp, #-4]!)
    e3e8:	eb000b11 	bl	11034 <Drawblueblock16bpp>
    e3ec:	e49de004 	pop	{lr}		; (ldr lr, [sp], #4)
    e3f0:	e3a01f65 	mov	r1, #404	; 0x194
    e3f4:	e2822010 	add	r2, r2, #16
    e3f8:	e52de004 	push	{lr}		; (str lr, [sp, #-4]!)
    e3fc:	eb000b0c 	bl	11034 <Drawblueblock16bpp>
    e400:	e49de004 	pop	{lr}		; (ldr lr, [sp], #4)
    e404:	e3a01f79 	mov	r1, #484	; 0x1e4
    e408:	e3a020e4 	mov	r2, #228	; 0xe4
    e40c:	e52de004 	push	{lr}		; (str lr, [sp, #-4]!)
    e410:	eb000b07 	bl	11034 <Drawblueblock16bpp>
    e414:	e49de004 	pop	{lr}		; (ldr lr, [sp], #4)
    e418:	e2811010 	add	r1, r1, #16
    e41c:	e52de004 	push	{lr}		; (str lr, [sp, #-4]!)
    e420:	eb000b03 	bl	11034 <Drawblueblock16bpp>
    e424:	e49de004 	pop	{lr}		; (ldr lr, [sp], #4)
    e428:	e2811010 	add	r1, r1, #16
    e42c:	e52de004 	push	{lr}		; (str lr, [sp, #-4]!)
    e430:	eb000aff 	bl	11034 <Drawblueblock16bpp>
    e434:	e49de004 	pop	{lr}		; (ldr lr, [sp], #4)
    e438:	e2811010 	add	r1, r1, #16
    e43c:	e52de004 	push	{lr}		; (str lr, [sp, #-4]!)
    e440:	eb000afb 	bl	11034 <Drawblueblock16bpp>
    e444:	e49de004 	pop	{lr}		; (ldr lr, [sp], #4)
    e448:	e2811010 	add	r1, r1, #16
    e44c:	e52de004 	push	{lr}		; (str lr, [sp, #-4]!)
    e450:	eb000af7 	bl	11034 <Drawblueblock16bpp>
    e454:	e49de004 	pop	{lr}		; (ldr lr, [sp], #4)
    e458:	e2811010 	add	r1, r1, #16
    e45c:	e52de004 	push	{lr}		; (str lr, [sp, #-4]!)
    e460:	eb000af3 	bl	11034 <Drawblueblock16bpp>
    e464:	e49de004 	pop	{lr}		; (ldr lr, [sp], #4)
    e468:	e3a01f79 	mov	r1, #484	; 0x1e4
    e46c:	e2822010 	add	r2, r2, #16
    e470:	e52de004 	push	{lr}		; (str lr, [sp, #-4]!)
    e474:	eb000aee 	bl	11034 <Drawblueblock16bpp>
    e478:	e49de004 	pop	{lr}		; (ldr lr, [sp], #4)
    e47c:	e3a01f79 	mov	r1, #484	; 0x1e4
    e480:	e2822010 	add	r2, r2, #16
    e484:	e52de004 	push	{lr}		; (str lr, [sp, #-4]!)
    e488:	eb000ae9 	bl	11034 <Drawblueblock16bpp>
    e48c:	e49de004 	pop	{lr}		; (ldr lr, [sp], #4)
    e490:	e3a01f79 	mov	r1, #484	; 0x1e4
    e494:	e2822010 	add	r2, r2, #16
    e498:	e52de004 	push	{lr}		; (str lr, [sp, #-4]!)
    e49c:	eb000ae4 	bl	11034 <Drawblueblock16bpp>
    e4a0:	e49de004 	pop	{lr}		; (ldr lr, [sp], #4)
    e4a4:	e2811010 	add	r1, r1, #16
    e4a8:	e52de004 	push	{lr}		; (str lr, [sp, #-4]!)
    e4ac:	eb000ae0 	bl	11034 <Drawblueblock16bpp>
    e4b0:	e49de004 	pop	{lr}		; (ldr lr, [sp], #4)
    e4b4:	e2811010 	add	r1, r1, #16
    e4b8:	e52de004 	push	{lr}		; (str lr, [sp, #-4]!)
    e4bc:	eb000adc 	bl	11034 <Drawblueblock16bpp>
    e4c0:	e49de004 	pop	{lr}		; (ldr lr, [sp], #4)
    e4c4:	e2811010 	add	r1, r1, #16
    e4c8:	e52de004 	push	{lr}		; (str lr, [sp, #-4]!)
    e4cc:	eb000ad8 	bl	11034 <Drawblueblock16bpp>
    e4d0:	e49de004 	pop	{lr}		; (ldr lr, [sp], #4)
    e4d4:	e3a01f79 	mov	r1, #484	; 0x1e4
    e4d8:	e2822010 	add	r2, r2, #16
    e4dc:	e52de004 	push	{lr}		; (str lr, [sp, #-4]!)
    e4e0:	eb000ad3 	bl	11034 <Drawblueblock16bpp>
    e4e4:	e49de004 	pop	{lr}		; (ldr lr, [sp], #4)
    e4e8:	e3a01f79 	mov	r1, #484	; 0x1e4
    e4ec:	e2822010 	add	r2, r2, #16
    e4f0:	e52de004 	push	{lr}		; (str lr, [sp, #-4]!)
    e4f4:	eb000ace 	bl	11034 <Drawblueblock16bpp>
    e4f8:	e49de004 	pop	{lr}		; (ldr lr, [sp], #4)
    e4fc:	e3a01f79 	mov	r1, #484	; 0x1e4
    e500:	e2822010 	add	r2, r2, #16
    e504:	e52de004 	push	{lr}		; (str lr, [sp, #-4]!)
    e508:	eb000ac9 	bl	11034 <Drawblueblock16bpp>
    e50c:	e49de004 	pop	{lr}		; (ldr lr, [sp], #4)
    e510:	e2811010 	add	r1, r1, #16
    e514:	e52de004 	push	{lr}		; (str lr, [sp, #-4]!)
    e518:	eb000ac5 	bl	11034 <Drawblueblock16bpp>
    e51c:	e49de004 	pop	{lr}		; (ldr lr, [sp], #4)
    e520:	e2811010 	add	r1, r1, #16
    e524:	e52de004 	push	{lr}		; (str lr, [sp, #-4]!)
    e528:	eb000ac1 	bl	11034 <Drawblueblock16bpp>
    e52c:	e49de004 	pop	{lr}		; (ldr lr, [sp], #4)
    e530:	e2811010 	add	r1, r1, #16
    e534:	e52de004 	push	{lr}		; (str lr, [sp, #-4]!)
    e538:	eb000abd 	bl	11034 <Drawblueblock16bpp>
    e53c:	e49de004 	pop	{lr}		; (ldr lr, [sp], #4)
    e540:	e2811010 	add	r1, r1, #16
    e544:	e52de004 	push	{lr}		; (str lr, [sp, #-4]!)
    e548:	eb000ab9 	bl	11034 <Drawblueblock16bpp>
    e54c:	e49de004 	pop	{lr}		; (ldr lr, [sp], #4)
    e550:	e2811010 	add	r1, r1, #16
    e554:	e52de004 	push	{lr}		; (str lr, [sp, #-4]!)
    e558:	eb000ab5 	bl	11034 <Drawblueblock16bpp>
    e55c:	e49de004 	pop	{lr}		; (ldr lr, [sp], #4)
    e560:	e3a01f99 	mov	r1, #612	; 0x264
    e564:	e3a020e4 	mov	r2, #228	; 0xe4
    e568:	e52de004 	push	{lr}		; (str lr, [sp, #-4]!)
    e56c:	eb000ab0 	bl	11034 <Drawblueblock16bpp>
    e570:	e49de004 	pop	{lr}		; (ldr lr, [sp], #4)
    e574:	e2811010 	add	r1, r1, #16
    e578:	e52de004 	push	{lr}		; (str lr, [sp, #-4]!)
    e57c:	eb000aac 	bl	11034 <Drawblueblock16bpp>
    e580:	e49de004 	pop	{lr}		; (ldr lr, [sp], #4)
    e584:	e2811010 	add	r1, r1, #16
    e588:	e52de004 	push	{lr}		; (str lr, [sp, #-4]!)
    e58c:	eb000aa8 	bl	11034 <Drawblueblock16bpp>
    e590:	e49de004 	pop	{lr}		; (ldr lr, [sp], #4)
    e594:	e2811010 	add	r1, r1, #16
    e598:	e52de004 	push	{lr}		; (str lr, [sp, #-4]!)
    e59c:	eb000aa4 	bl	11034 <Drawblueblock16bpp>
    e5a0:	e49de004 	pop	{lr}		; (ldr lr, [sp], #4)
    e5a4:	e2811010 	add	r1, r1, #16
    e5a8:	e52de004 	push	{lr}		; (str lr, [sp, #-4]!)
    e5ac:	eb000aa0 	bl	11034 <Drawblueblock16bpp>
    e5b0:	e49de004 	pop	{lr}		; (ldr lr, [sp], #4)
    e5b4:	e2811010 	add	r1, r1, #16
    e5b8:	e52de004 	push	{lr}		; (str lr, [sp, #-4]!)
    e5bc:	eb000a9c 	bl	11034 <Drawblueblock16bpp>
    e5c0:	e49de004 	pop	{lr}		; (ldr lr, [sp], #4)
    e5c4:	e2811010 	add	r1, r1, #16
    e5c8:	e52de004 	push	{lr}		; (str lr, [sp, #-4]!)
    e5cc:	eb000a98 	bl	11034 <Drawblueblock16bpp>
    e5d0:	e49de004 	pop	{lr}		; (ldr lr, [sp], #4)
    e5d4:	e3a01f99 	mov	r1, #612	; 0x264
    e5d8:	e2822010 	add	r2, r2, #16
    e5dc:	e52de004 	push	{lr}		; (str lr, [sp, #-4]!)
    e5e0:	eb000a93 	bl	11034 <Drawblueblock16bpp>
    e5e4:	e49de004 	pop	{lr}		; (ldr lr, [sp], #4)
    e5e8:	e2811060 	add	r1, r1, #96	; 0x60
    e5ec:	e52de004 	push	{lr}		; (str lr, [sp, #-4]!)
    e5f0:	eb000a8f 	bl	11034 <Drawblueblock16bpp>
    e5f4:	e49de004 	pop	{lr}		; (ldr lr, [sp], #4)
    e5f8:	e3a01f99 	mov	r1, #612	; 0x264
    e5fc:	e2822010 	add	r2, r2, #16
    e600:	e52de004 	push	{lr}		; (str lr, [sp, #-4]!)
    e604:	eb000a8a 	bl	11034 <Drawblueblock16bpp>
    e608:	e49de004 	pop	{lr}		; (ldr lr, [sp], #4)
    e60c:	e2811010 	add	r1, r1, #16
    e610:	e52de004 	push	{lr}		; (str lr, [sp, #-4]!)
    e614:	eb000a86 	bl	11034 <Drawblueblock16bpp>
    e618:	e49de004 	pop	{lr}		; (ldr lr, [sp], #4)
    e61c:	e2811010 	add	r1, r1, #16
    e620:	e52de004 	push	{lr}		; (str lr, [sp, #-4]!)
    e624:	eb000a82 	bl	11034 <Drawblueblock16bpp>
    e628:	e49de004 	pop	{lr}		; (ldr lr, [sp], #4)
    e62c:	e2811010 	add	r1, r1, #16
    e630:	e52de004 	push	{lr}		; (str lr, [sp, #-4]!)
    e634:	eb000a7e 	bl	11034 <Drawblueblock16bpp>
    e638:	e49de004 	pop	{lr}		; (ldr lr, [sp], #4)
    e63c:	e2811010 	add	r1, r1, #16
    e640:	e52de004 	push	{lr}		; (str lr, [sp, #-4]!)
    e644:	eb000a7a 	bl	11034 <Drawblueblock16bpp>
    e648:	e49de004 	pop	{lr}		; (ldr lr, [sp], #4)
    e64c:	e2811010 	add	r1, r1, #16
    e650:	e52de004 	push	{lr}		; (str lr, [sp, #-4]!)
    e654:	eb000a76 	bl	11034 <Drawblueblock16bpp>
    e658:	e49de004 	pop	{lr}		; (ldr lr, [sp], #4)
    e65c:	e2811010 	add	r1, r1, #16
    e660:	e52de004 	push	{lr}		; (str lr, [sp, #-4]!)
    e664:	eb000a72 	bl	11034 <Drawblueblock16bpp>
    e668:	e49de004 	pop	{lr}		; (ldr lr, [sp], #4)
    e66c:	e3a01f99 	mov	r1, #612	; 0x264
    e670:	e2822010 	add	r2, r2, #16
    e674:	e52de004 	push	{lr}		; (str lr, [sp, #-4]!)
    e678:	eb000a6d 	bl	11034 <Drawblueblock16bpp>
    e67c:	e49de004 	pop	{lr}		; (ldr lr, [sp], #4)
    e680:	e2811010 	add	r1, r1, #16
    e684:	e52de004 	push	{lr}		; (str lr, [sp, #-4]!)
    e688:	eb000a69 	bl	11034 <Drawblueblock16bpp>
    e68c:	e49de004 	pop	{lr}		; (ldr lr, [sp], #4)
    e690:	e3a01f99 	mov	r1, #612	; 0x264
    e694:	e2822010 	add	r2, r2, #16
    e698:	e52de004 	push	{lr}		; (str lr, [sp, #-4]!)
    e69c:	eb000a64 	bl	11034 <Drawblueblock16bpp>
    e6a0:	e49de004 	pop	{lr}		; (ldr lr, [sp], #4)
    e6a4:	e2811020 	add	r1, r1, #32
    e6a8:	e52de004 	push	{lr}		; (str lr, [sp, #-4]!)
    e6ac:	eb000a60 	bl	11034 <Drawblueblock16bpp>
    e6b0:	e49de004 	pop	{lr}		; (ldr lr, [sp], #4)
    e6b4:	e2811010 	add	r1, r1, #16
    e6b8:	e52de004 	push	{lr}		; (str lr, [sp, #-4]!)
    e6bc:	eb000a5c 	bl	11034 <Drawblueblock16bpp>
    e6c0:	e49de004 	pop	{lr}		; (ldr lr, [sp], #4)
    e6c4:	e3a01f99 	mov	r1, #612	; 0x264
    e6c8:	e2822010 	add	r2, r2, #16
    e6cc:	e52de004 	push	{lr}		; (str lr, [sp, #-4]!)
    e6d0:	eb000a57 	bl	11034 <Drawblueblock16bpp>
    e6d4:	e49de004 	pop	{lr}		; (ldr lr, [sp], #4)
    e6d8:	e2811040 	add	r1, r1, #64	; 0x40
    e6dc:	e52de004 	push	{lr}		; (str lr, [sp, #-4]!)
    e6e0:	eb000a53 	bl	11034 <Drawblueblock16bpp>
    e6e4:	e49de004 	pop	{lr}		; (ldr lr, [sp], #4)
    e6e8:	e2811010 	add	r1, r1, #16
    e6ec:	e52de004 	push	{lr}		; (str lr, [sp, #-4]!)
    e6f0:	eb000a4f 	bl	11034 <Drawblueblock16bpp>
    e6f4:	e49de004 	pop	{lr}		; (ldr lr, [sp], #4)
    e6f8:	e3a01f99 	mov	r1, #612	; 0x264
    e6fc:	e2822010 	add	r2, r2, #16
    e700:	e52de004 	push	{lr}		; (str lr, [sp, #-4]!)
    e704:	eb000a4a 	bl	11034 <Drawblueblock16bpp>
    e708:	e49de004 	pop	{lr}		; (ldr lr, [sp], #4)
    e70c:	e2811060 	add	r1, r1, #96	; 0x60
    e710:	e52de004 	push	{lr}		; (str lr, [sp, #-4]!)
    e714:	eb000a46 	bl	11034 <Drawblueblock16bpp>
    e718:	e49de004 	pop	{lr}		; (ldr lr, [sp], #4)
    e71c:	e3a01f59 	mov	r1, #356	; 0x164
    e720:	e3a02f59 	mov	r2, #356	; 0x164
    e724:	e52de004 	push	{lr}		; (str lr, [sp, #-4]!)
    e728:	eb000a41 	bl	11034 <Drawblueblock16bpp>
    e72c:	e49de004 	pop	{lr}		; (ldr lr, [sp], #4)
    e730:	e2811060 	add	r1, r1, #96	; 0x60
    e734:	e52de004 	push	{lr}		; (str lr, [sp, #-4]!)
    e738:	eb000a3d 	bl	11034 <Drawblueblock16bpp>
    e73c:	e49de004 	pop	{lr}		; (ldr lr, [sp], #4)
    e740:	e3a01f5d 	mov	r1, #372	; 0x174
    e744:	e2822010 	add	r2, r2, #16
    e748:	e52de004 	push	{lr}		; (str lr, [sp, #-4]!)
    e74c:	eb000a38 	bl	11034 <Drawblueblock16bpp>
    e750:	e49de004 	pop	{lr}		; (ldr lr, [sp], #4)
    e754:	e2811040 	add	r1, r1, #64	; 0x40
    e758:	e52de004 	push	{lr}		; (str lr, [sp, #-4]!)
    e75c:	eb000a34 	bl	11034 <Drawblueblock16bpp>
    e760:	e49de004 	pop	{lr}		; (ldr lr, [sp], #4)
    e764:	e3a01f61 	mov	r1, #388	; 0x184
    e768:	e2822010 	add	r2, r2, #16
    e76c:	e52de004 	push	{lr}		; (str lr, [sp, #-4]!)
    e770:	eb000a2f 	bl	11034 <Drawblueblock16bpp>
    e774:	e49de004 	pop	{lr}		; (ldr lr, [sp], #4)
    e778:	e2811020 	add	r1, r1, #32
    e77c:	e52de004 	push	{lr}		; (str lr, [sp, #-4]!)
    e780:	eb000a2b 	bl	11034 <Drawblueblock16bpp>
    e784:	e49de004 	pop	{lr}		; (ldr lr, [sp], #4)
    e788:	e3a01f65 	mov	r1, #404	; 0x194
    e78c:	e2822010 	add	r2, r2, #16
    e790:	e52de004 	push	{lr}		; (str lr, [sp, #-4]!)
    e794:	eb000a26 	bl	11034 <Drawblueblock16bpp>
    e798:	e49de004 	pop	{lr}		; (ldr lr, [sp], #4)
    e79c:	e3a01f65 	mov	r1, #404	; 0x194
    e7a0:	e2822010 	add	r2, r2, #16
    e7a4:	e52de004 	push	{lr}		; (str lr, [sp, #-4]!)
    e7a8:	eb000a21 	bl	11034 <Drawblueblock16bpp>
    e7ac:	e49de004 	pop	{lr}		; (ldr lr, [sp], #4)
    e7b0:	e3a01f65 	mov	r1, #404	; 0x194
    e7b4:	e2822010 	add	r2, r2, #16
    e7b8:	e52de004 	push	{lr}		; (str lr, [sp, #-4]!)
    e7bc:	eb000a1c 	bl	11034 <Drawblueblock16bpp>
    e7c0:	e49de004 	pop	{lr}		; (ldr lr, [sp], #4)
    e7c4:	e3a01f65 	mov	r1, #404	; 0x194
    e7c8:	e2822010 	add	r2, r2, #16
    e7cc:	e52de004 	push	{lr}		; (str lr, [sp, #-4]!)
    e7d0:	eb000a17 	bl	11034 <Drawblueblock16bpp>
    e7d4:	e49de004 	pop	{lr}		; (ldr lr, [sp], #4)
    e7d8:	e3a01f79 	mov	r1, #484	; 0x1e4
    e7dc:	e3a02f59 	mov	r2, #356	; 0x164
    e7e0:	e52de004 	push	{lr}		; (str lr, [sp, #-4]!)
    e7e4:	eb000a12 	bl	11034 <Drawblueblock16bpp>
    e7e8:	e49de004 	pop	{lr}		; (ldr lr, [sp], #4)
    e7ec:	e2811010 	add	r1, r1, #16
    e7f0:	e52de004 	push	{lr}		; (str lr, [sp, #-4]!)
    e7f4:	eb000a0e 	bl	11034 <Drawblueblock16bpp>
    e7f8:	e49de004 	pop	{lr}		; (ldr lr, [sp], #4)
    e7fc:	e2811010 	add	r1, r1, #16
    e800:	e52de004 	push	{lr}		; (str lr, [sp, #-4]!)
    e804:	eb000a0a 	bl	11034 <Drawblueblock16bpp>
    e808:	e49de004 	pop	{lr}		; (ldr lr, [sp], #4)
    e80c:	e2811010 	add	r1, r1, #16
    e810:	e52de004 	push	{lr}		; (str lr, [sp, #-4]!)
    e814:	eb000a06 	bl	11034 <Drawblueblock16bpp>
    e818:	e49de004 	pop	{lr}		; (ldr lr, [sp], #4)
    e81c:	e2811010 	add	r1, r1, #16
    e820:	e52de004 	push	{lr}		; (str lr, [sp, #-4]!)
    e824:	eb000a02 	bl	11034 <Drawblueblock16bpp>
    e828:	e49de004 	pop	{lr}		; (ldr lr, [sp], #4)
    e82c:	e2811010 	add	r1, r1, #16
    e830:	e52de004 	push	{lr}		; (str lr, [sp, #-4]!)
    e834:	eb0009fe 	bl	11034 <Drawblueblock16bpp>
    e838:	e49de004 	pop	{lr}		; (ldr lr, [sp], #4)
    e83c:	e2811010 	add	r1, r1, #16
    e840:	e52de004 	push	{lr}		; (str lr, [sp, #-4]!)
    e844:	eb0009fa 	bl	11034 <Drawblueblock16bpp>
    e848:	e49de004 	pop	{lr}		; (ldr lr, [sp], #4)
    e84c:	e3a01f79 	mov	r1, #484	; 0x1e4
    e850:	e2822010 	add	r2, r2, #16
    e854:	e52de004 	push	{lr}		; (str lr, [sp, #-4]!)
    e858:	eb0009f5 	bl	11034 <Drawblueblock16bpp>
    e85c:	e49de004 	pop	{lr}		; (ldr lr, [sp], #4)
    e860:	e2811060 	add	r1, r1, #96	; 0x60
    e864:	e52de004 	push	{lr}		; (str lr, [sp, #-4]!)
    e868:	eb0009f1 	bl	11034 <Drawblueblock16bpp>
    e86c:	e49de004 	pop	{lr}		; (ldr lr, [sp], #4)
    e870:	e3a01f79 	mov	r1, #484	; 0x1e4
    e874:	e2822010 	add	r2, r2, #16
    e878:	e52de004 	push	{lr}		; (str lr, [sp, #-4]!)
    e87c:	eb0009ec 	bl	11034 <Drawblueblock16bpp>
    e880:	e49de004 	pop	{lr}		; (ldr lr, [sp], #4)
    e884:	e2811060 	add	r1, r1, #96	; 0x60
    e888:	e52de004 	push	{lr}		; (str lr, [sp, #-4]!)
    e88c:	eb0009e8 	bl	11034 <Drawblueblock16bpp>
    e890:	e49de004 	pop	{lr}		; (ldr lr, [sp], #4)
    e894:	e3a01f79 	mov	r1, #484	; 0x1e4
    e898:	e2822010 	add	r2, r2, #16
    e89c:	e52de004 	push	{lr}		; (str lr, [sp, #-4]!)
    e8a0:	eb0009e3 	bl	11034 <Drawblueblock16bpp>
    e8a4:	e49de004 	pop	{lr}		; (ldr lr, [sp], #4)
    e8a8:	e2811060 	add	r1, r1, #96	; 0x60
    e8ac:	e52de004 	push	{lr}		; (str lr, [sp, #-4]!)
    e8b0:	eb0009df 	bl	11034 <Drawblueblock16bpp>
    e8b4:	e49de004 	pop	{lr}		; (ldr lr, [sp], #4)
    e8b8:	e3a01f79 	mov	r1, #484	; 0x1e4
    e8bc:	e2822010 	add	r2, r2, #16
    e8c0:	e52de004 	push	{lr}		; (str lr, [sp, #-4]!)
    e8c4:	eb0009da 	bl	11034 <Drawblueblock16bpp>
    e8c8:	e49de004 	pop	{lr}		; (ldr lr, [sp], #4)
    e8cc:	e2811060 	add	r1, r1, #96	; 0x60
    e8d0:	e52de004 	push	{lr}		; (str lr, [sp, #-4]!)
    e8d4:	eb0009d6 	bl	11034 <Drawblueblock16bpp>
    e8d8:	e49de004 	pop	{lr}		; (ldr lr, [sp], #4)
    e8dc:	e3a01f79 	mov	r1, #484	; 0x1e4
    e8e0:	e2822010 	add	r2, r2, #16
    e8e4:	e52de004 	push	{lr}		; (str lr, [sp, #-4]!)
    e8e8:	eb0009d1 	bl	11034 <Drawblueblock16bpp>
    e8ec:	e49de004 	pop	{lr}		; (ldr lr, [sp], #4)
    e8f0:	e2811060 	add	r1, r1, #96	; 0x60
    e8f4:	e52de004 	push	{lr}		; (str lr, [sp, #-4]!)
    e8f8:	eb0009cd 	bl	11034 <Drawblueblock16bpp>
    e8fc:	e49de004 	pop	{lr}		; (ldr lr, [sp], #4)
    e900:	e3a01f79 	mov	r1, #484	; 0x1e4
    e904:	e2822010 	add	r2, r2, #16
    e908:	e52de004 	push	{lr}		; (str lr, [sp, #-4]!)
    e90c:	eb0009c8 	bl	11034 <Drawblueblock16bpp>
    e910:	e49de004 	pop	{lr}		; (ldr lr, [sp], #4)
    e914:	e2811010 	add	r1, r1, #16
    e918:	e52de004 	push	{lr}		; (str lr, [sp, #-4]!)
    e91c:	eb0009c4 	bl	11034 <Drawblueblock16bpp>
    e920:	e49de004 	pop	{lr}		; (ldr lr, [sp], #4)
    e924:	e2811010 	add	r1, r1, #16
    e928:	e52de004 	push	{lr}		; (str lr, [sp, #-4]!)
    e92c:	eb0009c0 	bl	11034 <Drawblueblock16bpp>
    e930:	e49de004 	pop	{lr}		; (ldr lr, [sp], #4)
    e934:	e2811010 	add	r1, r1, #16
    e938:	e52de004 	push	{lr}		; (str lr, [sp, #-4]!)
    e93c:	eb0009bc 	bl	11034 <Drawblueblock16bpp>
    e940:	e49de004 	pop	{lr}		; (ldr lr, [sp], #4)
    e944:	e2811010 	add	r1, r1, #16
    e948:	e52de004 	push	{lr}		; (str lr, [sp, #-4]!)
    e94c:	eb0009b8 	bl	11034 <Drawblueblock16bpp>
    e950:	e49de004 	pop	{lr}		; (ldr lr, [sp], #4)
    e954:	e2811010 	add	r1, r1, #16
    e958:	e52de004 	push	{lr}		; (str lr, [sp, #-4]!)
    e95c:	eb0009b4 	bl	11034 <Drawblueblock16bpp>
    e960:	e49de004 	pop	{lr}		; (ldr lr, [sp], #4)
    e964:	e2811010 	add	r1, r1, #16
    e968:	e52de004 	push	{lr}		; (str lr, [sp, #-4]!)
    e96c:	eb0009b0 	bl	11034 <Drawblueblock16bpp>
    e970:	e49de004 	pop	{lr}		; (ldr lr, [sp], #4)
    e974:	e3a01f99 	mov	r1, #612	; 0x264
    e978:	e3a02f59 	mov	r2, #356	; 0x164
    e97c:	e52de004 	push	{lr}		; (str lr, [sp, #-4]!)
    e980:	eb0009ab 	bl	11034 <Drawblueblock16bpp>
    e984:	e49de004 	pop	{lr}		; (ldr lr, [sp], #4)
    e988:	e2811060 	add	r1, r1, #96	; 0x60
    e98c:	e52de004 	push	{lr}		; (str lr, [sp, #-4]!)
    e990:	eb0009a7 	bl	11034 <Drawblueblock16bpp>
    e994:	e49de004 	pop	{lr}		; (ldr lr, [sp], #4)
    e998:	e3a01f99 	mov	r1, #612	; 0x264
    e99c:	e2822010 	add	r2, r2, #16
    e9a0:	e52de004 	push	{lr}		; (str lr, [sp, #-4]!)
    e9a4:	eb0009a2 	bl	11034 <Drawblueblock16bpp>
    e9a8:	e49de004 	pop	{lr}		; (ldr lr, [sp], #4)
    e9ac:	e2811060 	add	r1, r1, #96	; 0x60
    e9b0:	e52de004 	push	{lr}		; (str lr, [sp, #-4]!)
    e9b4:	eb00099e 	bl	11034 <Drawblueblock16bpp>
    e9b8:	e49de004 	pop	{lr}		; (ldr lr, [sp], #4)
    e9bc:	e3a01f99 	mov	r1, #612	; 0x264
    e9c0:	e2822010 	add	r2, r2, #16
    e9c4:	e52de004 	push	{lr}		; (str lr, [sp, #-4]!)
    e9c8:	eb000999 	bl	11034 <Drawblueblock16bpp>
    e9cc:	e49de004 	pop	{lr}		; (ldr lr, [sp], #4)
    e9d0:	e2811060 	add	r1, r1, #96	; 0x60
    e9d4:	e52de004 	push	{lr}		; (str lr, [sp, #-4]!)
    e9d8:	eb000995 	bl	11034 <Drawblueblock16bpp>
    e9dc:	e49de004 	pop	{lr}		; (ldr lr, [sp], #4)
    e9e0:	e3a01f99 	mov	r1, #612	; 0x264
    e9e4:	e2822010 	add	r2, r2, #16
    e9e8:	e52de004 	push	{lr}		; (str lr, [sp, #-4]!)
    e9ec:	eb000990 	bl	11034 <Drawblueblock16bpp>
    e9f0:	e49de004 	pop	{lr}		; (ldr lr, [sp], #4)
    e9f4:	e2811060 	add	r1, r1, #96	; 0x60
    e9f8:	e52de004 	push	{lr}		; (str lr, [sp, #-4]!)
    e9fc:	eb00098c 	bl	11034 <Drawblueblock16bpp>
    ea00:	e49de004 	pop	{lr}		; (ldr lr, [sp], #4)
    ea04:	e3a01f99 	mov	r1, #612	; 0x264
    ea08:	e2822010 	add	r2, r2, #16
    ea0c:	e52de004 	push	{lr}		; (str lr, [sp, #-4]!)
    ea10:	eb000987 	bl	11034 <Drawblueblock16bpp>
    ea14:	e49de004 	pop	{lr}		; (ldr lr, [sp], #4)
    ea18:	e2811060 	add	r1, r1, #96	; 0x60
    ea1c:	e52de004 	push	{lr}		; (str lr, [sp, #-4]!)
    ea20:	eb000983 	bl	11034 <Drawblueblock16bpp>
    ea24:	e49de004 	pop	{lr}		; (ldr lr, [sp], #4)
    ea28:	e3a01f99 	mov	r1, #612	; 0x264
    ea2c:	e2822010 	add	r2, r2, #16
    ea30:	e52de004 	push	{lr}		; (str lr, [sp, #-4]!)
    ea34:	eb00097e 	bl	11034 <Drawblueblock16bpp>
    ea38:	e49de004 	pop	{lr}		; (ldr lr, [sp], #4)
    ea3c:	e2811060 	add	r1, r1, #96	; 0x60
    ea40:	e52de004 	push	{lr}		; (str lr, [sp, #-4]!)
    ea44:	eb00097a 	bl	11034 <Drawblueblock16bpp>
    ea48:	e49de004 	pop	{lr}		; (ldr lr, [sp], #4)
    ea4c:	e3a01f99 	mov	r1, #612	; 0x264
    ea50:	e2822010 	add	r2, r2, #16
    ea54:	e52de004 	push	{lr}		; (str lr, [sp, #-4]!)
    ea58:	eb000975 	bl	11034 <Drawblueblock16bpp>
    ea5c:	e49de004 	pop	{lr}		; (ldr lr, [sp], #4)
    ea60:	e2811010 	add	r1, r1, #16
    ea64:	e52de004 	push	{lr}		; (str lr, [sp, #-4]!)
    ea68:	eb000971 	bl	11034 <Drawblueblock16bpp>
    ea6c:	e49de004 	pop	{lr}		; (ldr lr, [sp], #4)
    ea70:	e2811010 	add	r1, r1, #16
    ea74:	e52de004 	push	{lr}		; (str lr, [sp, #-4]!)
    ea78:	eb00096d 	bl	11034 <Drawblueblock16bpp>
    ea7c:	e49de004 	pop	{lr}		; (ldr lr, [sp], #4)
    ea80:	e2811010 	add	r1, r1, #16
    ea84:	e52de004 	push	{lr}		; (str lr, [sp, #-4]!)
    ea88:	eb000969 	bl	11034 <Drawblueblock16bpp>
    ea8c:	e49de004 	pop	{lr}		; (ldr lr, [sp], #4)
    ea90:	e2811010 	add	r1, r1, #16
    ea94:	e52de004 	push	{lr}		; (str lr, [sp, #-4]!)
    ea98:	eb000965 	bl	11034 <Drawblueblock16bpp>
    ea9c:	e49de004 	pop	{lr}		; (ldr lr, [sp], #4)
    eaa0:	e2811010 	add	r1, r1, #16
    eaa4:	e52de004 	push	{lr}		; (str lr, [sp, #-4]!)
    eaa8:	eb000961 	bl	11034 <Drawblueblock16bpp>
    eaac:	e49de004 	pop	{lr}		; (ldr lr, [sp], #4)
    eab0:	e2811010 	add	r1, r1, #16
    eab4:	e52de004 	push	{lr}		; (str lr, [sp, #-4]!)
    eab8:	eb00095d 	bl	11034 <Drawblueblock16bpp>
    eabc:	e49de004 	pop	{lr}		; (ldr lr, [sp], #4)
    eac0:	e3a01f79 	mov	r1, #484	; 0x1e4
    eac4:	e3a02f79 	mov	r2, #484	; 0x1e4
    eac8:	e52de004 	push	{lr}		; (str lr, [sp, #-4]!)
    eacc:	eb000958 	bl	11034 <Drawblueblock16bpp>
    ead0:	e49de004 	pop	{lr}		; (ldr lr, [sp], #4)
    ead4:	e2811060 	add	r1, r1, #96	; 0x60
    ead8:	e52de004 	push	{lr}		; (str lr, [sp, #-4]!)
    eadc:	eb000954 	bl	11034 <Drawblueblock16bpp>
    eae0:	e49de004 	pop	{lr}		; (ldr lr, [sp], #4)
    eae4:	e3a01f79 	mov	r1, #484	; 0x1e4
    eae8:	e2822010 	add	r2, r2, #16
    eaec:	e52de004 	push	{lr}		; (str lr, [sp, #-4]!)
    eaf0:	eb00094f 	bl	11034 <Drawblueblock16bpp>
    eaf4:	e49de004 	pop	{lr}		; (ldr lr, [sp], #4)
    eaf8:	e2811060 	add	r1, r1, #96	; 0x60
    eafc:	e52de004 	push	{lr}		; (str lr, [sp, #-4]!)
    eb00:	eb00094b 	bl	11034 <Drawblueblock16bpp>
    eb04:	e49de004 	pop	{lr}		; (ldr lr, [sp], #4)
    eb08:	e3a01f79 	mov	r1, #484	; 0x1e4
    eb0c:	e2822010 	add	r2, r2, #16
    eb10:	e52de004 	push	{lr}		; (str lr, [sp, #-4]!)
    eb14:	eb000946 	bl	11034 <Drawblueblock16bpp>
    eb18:	e49de004 	pop	{lr}		; (ldr lr, [sp], #4)
    eb1c:	e2811060 	add	r1, r1, #96	; 0x60
    eb20:	e52de004 	push	{lr}		; (str lr, [sp, #-4]!)
    eb24:	eb000942 	bl	11034 <Drawblueblock16bpp>
    eb28:	e49de004 	pop	{lr}		; (ldr lr, [sp], #4)
    eb2c:	e3a01f79 	mov	r1, #484	; 0x1e4
    eb30:	e2822010 	add	r2, r2, #16
    eb34:	e52de004 	push	{lr}		; (str lr, [sp, #-4]!)
    eb38:	eb00093d 	bl	11034 <Drawblueblock16bpp>
    eb3c:	e49de004 	pop	{lr}		; (ldr lr, [sp], #4)
    eb40:	e2811060 	add	r1, r1, #96	; 0x60
    eb44:	e52de004 	push	{lr}		; (str lr, [sp, #-4]!)
    eb48:	eb000939 	bl	11034 <Drawblueblock16bpp>
    eb4c:	e49de004 	pop	{lr}		; (ldr lr, [sp], #4)
    eb50:	e3a01f79 	mov	r1, #484	; 0x1e4
    eb54:	e2822010 	add	r2, r2, #16
    eb58:	e52de004 	push	{lr}		; (str lr, [sp, #-4]!)
    eb5c:	eb000934 	bl	11034 <Drawblueblock16bpp>
    eb60:	e49de004 	pop	{lr}		; (ldr lr, [sp], #4)
    eb64:	e2811030 	add	r1, r1, #48	; 0x30
    eb68:	e52de004 	push	{lr}		; (str lr, [sp, #-4]!)
    eb6c:	eb000930 	bl	11034 <Drawblueblock16bpp>
    eb70:	e49de004 	pop	{lr}		; (ldr lr, [sp], #4)
    eb74:	e2811030 	add	r1, r1, #48	; 0x30
    eb78:	e52de004 	push	{lr}		; (str lr, [sp, #-4]!)
    eb7c:	eb00092c 	bl	11034 <Drawblueblock16bpp>
    eb80:	e49de004 	pop	{lr}		; (ldr lr, [sp], #4)
    eb84:	e3a01f79 	mov	r1, #484	; 0x1e4
    eb88:	e2822010 	add	r2, r2, #16
    eb8c:	e52de004 	push	{lr}		; (str lr, [sp, #-4]!)
    eb90:	eb000927 	bl	11034 <Drawblueblock16bpp>
    eb94:	e49de004 	pop	{lr}		; (ldr lr, [sp], #4)
    eb98:	e2811020 	add	r1, r1, #32
    eb9c:	e52de004 	push	{lr}		; (str lr, [sp, #-4]!)
    eba0:	eb000923 	bl	11034 <Drawblueblock16bpp>
    eba4:	e49de004 	pop	{lr}		; (ldr lr, [sp], #4)
    eba8:	e2811020 	add	r1, r1, #32
    ebac:	e52de004 	push	{lr}		; (str lr, [sp, #-4]!)
    ebb0:	eb00091f 	bl	11034 <Drawblueblock16bpp>
    ebb4:	e49de004 	pop	{lr}		; (ldr lr, [sp], #4)
    ebb8:	e2811020 	add	r1, r1, #32
    ebbc:	e52de004 	push	{lr}		; (str lr, [sp, #-4]!)
    ebc0:	eb00091b 	bl	11034 <Drawblueblock16bpp>
    ebc4:	e49de004 	pop	{lr}		; (ldr lr, [sp], #4)
    ebc8:	e3a01f79 	mov	r1, #484	; 0x1e4
    ebcc:	e2822010 	add	r2, r2, #16
    ebd0:	e52de004 	push	{lr}		; (str lr, [sp, #-4]!)
    ebd4:	eb000916 	bl	11034 <Drawblueblock16bpp>
    ebd8:	e49de004 	pop	{lr}		; (ldr lr, [sp], #4)
    ebdc:	e2811010 	add	r1, r1, #16
    ebe0:	e52de004 	push	{lr}		; (str lr, [sp, #-4]!)
    ebe4:	eb000912 	bl	11034 <Drawblueblock16bpp>
    ebe8:	e49de004 	pop	{lr}		; (ldr lr, [sp], #4)
    ebec:	e2811040 	add	r1, r1, #64	; 0x40
    ebf0:	e52de004 	push	{lr}		; (str lr, [sp, #-4]!)
    ebf4:	eb00090e 	bl	11034 <Drawblueblock16bpp>
    ebf8:	e49de004 	pop	{lr}		; (ldr lr, [sp], #4)
    ebfc:	e2811010 	add	r1, r1, #16
    ec00:	e52de004 	push	{lr}		; (str lr, [sp, #-4]!)
    ec04:	eb00090a 	bl	11034 <Drawblueblock16bpp>
    ec08:	e49de004 	pop	{lr}		; (ldr lr, [sp], #4)
    ec0c:	e3a01f99 	mov	r1, #612	; 0x264
    ec10:	e3a02f79 	mov	r2, #484	; 0x1e4
    ec14:	e52de004 	push	{lr}		; (str lr, [sp, #-4]!)
    ec18:	eb000905 	bl	11034 <Drawblueblock16bpp>
    ec1c:	e49de004 	pop	{lr}		; (ldr lr, [sp], #4)
    ec20:	e2811010 	add	r1, r1, #16
    ec24:	e52de004 	push	{lr}		; (str lr, [sp, #-4]!)
    ec28:	eb000901 	bl	11034 <Drawblueblock16bpp>
    ec2c:	e49de004 	pop	{lr}		; (ldr lr, [sp], #4)
    ec30:	e2811010 	add	r1, r1, #16
    ec34:	e52de004 	push	{lr}		; (str lr, [sp, #-4]!)
    ec38:	eb0008fd 	bl	11034 <Drawblueblock16bpp>
    ec3c:	e49de004 	pop	{lr}		; (ldr lr, [sp], #4)
    ec40:	e2811010 	add	r1, r1, #16
    ec44:	e52de004 	push	{lr}		; (str lr, [sp, #-4]!)
    ec48:	eb0008f9 	bl	11034 <Drawblueblock16bpp>
    ec4c:	e49de004 	pop	{lr}		; (ldr lr, [sp], #4)
    ec50:	e2811010 	add	r1, r1, #16
    ec54:	e52de004 	push	{lr}		; (str lr, [sp, #-4]!)
    ec58:	eb0008f5 	bl	11034 <Drawblueblock16bpp>
    ec5c:	e49de004 	pop	{lr}		; (ldr lr, [sp], #4)
    ec60:	e2811010 	add	r1, r1, #16
    ec64:	e52de004 	push	{lr}		; (str lr, [sp, #-4]!)
    ec68:	eb0008f1 	bl	11034 <Drawblueblock16bpp>
    ec6c:	e49de004 	pop	{lr}		; (ldr lr, [sp], #4)
    ec70:	e2811010 	add	r1, r1, #16
    ec74:	e52de004 	push	{lr}		; (str lr, [sp, #-4]!)
    ec78:	eb0008ed 	bl	11034 <Drawblueblock16bpp>
    ec7c:	e49de004 	pop	{lr}		; (ldr lr, [sp], #4)
    ec80:	e3a01f99 	mov	r1, #612	; 0x264
    ec84:	e2822010 	add	r2, r2, #16
    ec88:	e52de004 	push	{lr}		; (str lr, [sp, #-4]!)
    ec8c:	eb0008e8 	bl	11034 <Drawblueblock16bpp>
    ec90:	e49de004 	pop	{lr}		; (ldr lr, [sp], #4)
    ec94:	e2811060 	add	r1, r1, #96	; 0x60
    ec98:	e52de004 	push	{lr}		; (str lr, [sp, #-4]!)
    ec9c:	eb0008e4 	bl	11034 <Drawblueblock16bpp>
    eca0:	e49de004 	pop	{lr}		; (ldr lr, [sp], #4)
    eca4:	e3a01f99 	mov	r1, #612	; 0x264
    eca8:	e2822010 	add	r2, r2, #16
    ecac:	e52de004 	push	{lr}		; (str lr, [sp, #-4]!)
    ecb0:	eb0008df 	bl	11034 <Drawblueblock16bpp>
    ecb4:	e49de004 	pop	{lr}		; (ldr lr, [sp], #4)
    ecb8:	e2811060 	add	r1, r1, #96	; 0x60
    ecbc:	e52de004 	push	{lr}		; (str lr, [sp, #-4]!)
    ecc0:	eb0008db 	bl	11034 <Drawblueblock16bpp>
    ecc4:	e49de004 	pop	{lr}		; (ldr lr, [sp], #4)
    ecc8:	e3a01f99 	mov	r1, #612	; 0x264
    eccc:	e2822010 	add	r2, r2, #16
    ecd0:	e52de004 	push	{lr}		; (str lr, [sp, #-4]!)
    ecd4:	eb0008d6 	bl	11034 <Drawblueblock16bpp>
    ecd8:	e49de004 	pop	{lr}		; (ldr lr, [sp], #4)
    ecdc:	e2811060 	add	r1, r1, #96	; 0x60
    ece0:	e52de004 	push	{lr}		; (str lr, [sp, #-4]!)
    ece4:	eb0008d2 	bl	11034 <Drawblueblock16bpp>
    ece8:	e49de004 	pop	{lr}		; (ldr lr, [sp], #4)
    ecec:	e3a01f99 	mov	r1, #612	; 0x264
    ecf0:	e2822010 	add	r2, r2, #16
    ecf4:	e52de004 	push	{lr}		; (str lr, [sp, #-4]!)
    ecf8:	eb0008cd 	bl	11034 <Drawblueblock16bpp>
    ecfc:	e49de004 	pop	{lr}		; (ldr lr, [sp], #4)
    ed00:	e2811060 	add	r1, r1, #96	; 0x60
    ed04:	e52de004 	push	{lr}		; (str lr, [sp, #-4]!)
    ed08:	eb0008c9 	bl	11034 <Drawblueblock16bpp>
    ed0c:	e49de004 	pop	{lr}		; (ldr lr, [sp], #4)
    ed10:	e3a01f99 	mov	r1, #612	; 0x264
    ed14:	e2822010 	add	r2, r2, #16
    ed18:	e52de004 	push	{lr}		; (str lr, [sp, #-4]!)
    ed1c:	eb0008c4 	bl	11034 <Drawblueblock16bpp>
    ed20:	e49de004 	pop	{lr}		; (ldr lr, [sp], #4)
    ed24:	e2811060 	add	r1, r1, #96	; 0x60
    ed28:	e52de004 	push	{lr}		; (str lr, [sp, #-4]!)
    ed2c:	eb0008c0 	bl	11034 <Drawblueblock16bpp>
    ed30:	e49de004 	pop	{lr}		; (ldr lr, [sp], #4)
    ed34:	e3a01f99 	mov	r1, #612	; 0x264
    ed38:	e2822010 	add	r2, r2, #16
    ed3c:	e52de004 	push	{lr}		; (str lr, [sp, #-4]!)
    ed40:	eb0008bb 	bl	11034 <Drawblueblock16bpp>
    ed44:	e49de004 	pop	{lr}		; (ldr lr, [sp], #4)
    ed48:	e2811010 	add	r1, r1, #16
    ed4c:	e52de004 	push	{lr}		; (str lr, [sp, #-4]!)
    ed50:	eb0008b7 	bl	11034 <Drawblueblock16bpp>
    ed54:	e49de004 	pop	{lr}		; (ldr lr, [sp], #4)
    ed58:	e2811010 	add	r1, r1, #16
    ed5c:	e52de004 	push	{lr}		; (str lr, [sp, #-4]!)
    ed60:	eb0008b3 	bl	11034 <Drawblueblock16bpp>
    ed64:	e49de004 	pop	{lr}		; (ldr lr, [sp], #4)
    ed68:	e2811010 	add	r1, r1, #16
    ed6c:	e52de004 	push	{lr}		; (str lr, [sp, #-4]!)
    ed70:	eb0008af 	bl	11034 <Drawblueblock16bpp>
    ed74:	e49de004 	pop	{lr}		; (ldr lr, [sp], #4)
    ed78:	e2811010 	add	r1, r1, #16
    ed7c:	e52de004 	push	{lr}		; (str lr, [sp, #-4]!)
    ed80:	eb0008ab 	bl	11034 <Drawblueblock16bpp>
    ed84:	e49de004 	pop	{lr}		; (ldr lr, [sp], #4)
    ed88:	e2811010 	add	r1, r1, #16
    ed8c:	e52de004 	push	{lr}		; (str lr, [sp, #-4]!)
    ed90:	eb0008a7 	bl	11034 <Drawblueblock16bpp>
    ed94:	e49de004 	pop	{lr}		; (ldr lr, [sp], #4)
    ed98:	e2811010 	add	r1, r1, #16
    ed9c:	e52de004 	push	{lr}		; (str lr, [sp, #-4]!)
    eda0:	eb0008a3 	bl	11034 <Drawblueblock16bpp>
    eda4:	e49de004 	pop	{lr}		; (ldr lr, [sp], #4)
    eda8:	e3a01fb9 	mov	r1, #740	; 0x2e4
    edac:	e3a02f79 	mov	r2, #484	; 0x1e4
    edb0:	e52de004 	push	{lr}		; (str lr, [sp, #-4]!)
    edb4:	eb00089e 	bl	11034 <Drawblueblock16bpp>
    edb8:	e49de004 	pop	{lr}		; (ldr lr, [sp], #4)
    edbc:	e2811010 	add	r1, r1, #16
    edc0:	e52de004 	push	{lr}		; (str lr, [sp, #-4]!)
    edc4:	eb00089a 	bl	11034 <Drawblueblock16bpp>
    edc8:	e49de004 	pop	{lr}		; (ldr lr, [sp], #4)
    edcc:	e2811010 	add	r1, r1, #16
    edd0:	e52de004 	push	{lr}		; (str lr, [sp, #-4]!)
    edd4:	eb000896 	bl	11034 <Drawblueblock16bpp>
    edd8:	e49de004 	pop	{lr}		; (ldr lr, [sp], #4)
    eddc:	e2811040 	add	r1, r1, #64	; 0x40
    ede0:	e52de004 	push	{lr}		; (str lr, [sp, #-4]!)
    ede4:	eb000892 	bl	11034 <Drawblueblock16bpp>
    ede8:	e49de004 	pop	{lr}		; (ldr lr, [sp], #4)
    edec:	e3a01fb9 	mov	r1, #740	; 0x2e4
    edf0:	e2822010 	add	r2, r2, #16
    edf4:	e52de004 	push	{lr}		; (str lr, [sp, #-4]!)
    edf8:	eb00088d 	bl	11034 <Drawblueblock16bpp>
    edfc:	e49de004 	pop	{lr}		; (ldr lr, [sp], #4)
    ee00:	e2811020 	add	r1, r1, #32
    ee04:	e52de004 	push	{lr}		; (str lr, [sp, #-4]!)
    ee08:	eb000889 	bl	11034 <Drawblueblock16bpp>
    ee0c:	e49de004 	pop	{lr}		; (ldr lr, [sp], #4)
    ee10:	e2811040 	add	r1, r1, #64	; 0x40
    ee14:	e52de004 	push	{lr}		; (str lr, [sp, #-4]!)
    ee18:	eb000885 	bl	11034 <Drawblueblock16bpp>
    ee1c:	e49de004 	pop	{lr}		; (ldr lr, [sp], #4)
    ee20:	e3a01fb9 	mov	r1, #740	; 0x2e4
    ee24:	e2822010 	add	r2, r2, #16
    ee28:	e52de004 	push	{lr}		; (str lr, [sp, #-4]!)
    ee2c:	eb000880 	bl	11034 <Drawblueblock16bpp>
    ee30:	e49de004 	pop	{lr}		; (ldr lr, [sp], #4)
    ee34:	e2811020 	add	r1, r1, #32
    ee38:	e52de004 	push	{lr}		; (str lr, [sp, #-4]!)
    ee3c:	eb00087c 	bl	11034 <Drawblueblock16bpp>
    ee40:	e49de004 	pop	{lr}		; (ldr lr, [sp], #4)
    ee44:	e2811040 	add	r1, r1, #64	; 0x40
    ee48:	e52de004 	push	{lr}		; (str lr, [sp, #-4]!)
    ee4c:	eb000878 	bl	11034 <Drawblueblock16bpp>
    ee50:	e49de004 	pop	{lr}		; (ldr lr, [sp], #4)
    ee54:	e3a01fb9 	mov	r1, #740	; 0x2e4
    ee58:	e2822010 	add	r2, r2, #16
    ee5c:	e52de004 	push	{lr}		; (str lr, [sp, #-4]!)
    ee60:	eb000873 	bl	11034 <Drawblueblock16bpp>
    ee64:	e49de004 	pop	{lr}		; (ldr lr, [sp], #4)
    ee68:	e2811030 	add	r1, r1, #48	; 0x30
    ee6c:	e52de004 	push	{lr}		; (str lr, [sp, #-4]!)
    ee70:	eb00086f 	bl	11034 <Drawblueblock16bpp>
    ee74:	e49de004 	pop	{lr}		; (ldr lr, [sp], #4)
    ee78:	e2811030 	add	r1, r1, #48	; 0x30
    ee7c:	e52de004 	push	{lr}		; (str lr, [sp, #-4]!)
    ee80:	eb00086b 	bl	11034 <Drawblueblock16bpp>
    ee84:	e49de004 	pop	{lr}		; (ldr lr, [sp], #4)
    ee88:	e3a01fb9 	mov	r1, #740	; 0x2e4
    ee8c:	e2822010 	add	r2, r2, #16
    ee90:	e52de004 	push	{lr}		; (str lr, [sp, #-4]!)
    ee94:	eb000866 	bl	11034 <Drawblueblock16bpp>
    ee98:	e49de004 	pop	{lr}		; (ldr lr, [sp], #4)
    ee9c:	e2811030 	add	r1, r1, #48	; 0x30
    eea0:	e52de004 	push	{lr}		; (str lr, [sp, #-4]!)
    eea4:	eb000862 	bl	11034 <Drawblueblock16bpp>
    eea8:	e49de004 	pop	{lr}		; (ldr lr, [sp], #4)
    eeac:	e2811030 	add	r1, r1, #48	; 0x30
    eeb0:	e52de004 	push	{lr}		; (str lr, [sp, #-4]!)
    eeb4:	eb00085e 	bl	11034 <Drawblueblock16bpp>
    eeb8:	e49de004 	pop	{lr}		; (ldr lr, [sp], #4)
    eebc:	e3a01fb9 	mov	r1, #740	; 0x2e4
    eec0:	e2822010 	add	r2, r2, #16
    eec4:	e52de004 	push	{lr}		; (str lr, [sp, #-4]!)
    eec8:	eb000859 	bl	11034 <Drawblueblock16bpp>
    eecc:	e49de004 	pop	{lr}		; (ldr lr, [sp], #4)
    eed0:	e2811040 	add	r1, r1, #64	; 0x40
    eed4:	e52de004 	push	{lr}		; (str lr, [sp, #-4]!)
    eed8:	eb000855 	bl	11034 <Drawblueblock16bpp>
    eedc:	e49de004 	pop	{lr}		; (ldr lr, [sp], #4)
    eee0:	e2811020 	add	r1, r1, #32
    eee4:	e52de004 	push	{lr}		; (str lr, [sp, #-4]!)
    eee8:	eb000851 	bl	11034 <Drawblueblock16bpp>
    eeec:	e49de004 	pop	{lr}		; (ldr lr, [sp], #4)
    eef0:	e3a01fb9 	mov	r1, #740	; 0x2e4
    eef4:	e2822010 	add	r2, r2, #16
    eef8:	e52de004 	push	{lr}		; (str lr, [sp, #-4]!)
    eefc:	eb00084c 	bl	11034 <Drawblueblock16bpp>
    ef00:	e49de004 	pop	{lr}		; (ldr lr, [sp], #4)
    ef04:	e2811050 	add	r1, r1, #80	; 0x50
    ef08:	e52de004 	push	{lr}		; (str lr, [sp, #-4]!)
    ef0c:	eb000848 	bl	11034 <Drawblueblock16bpp>
    ef10:	e49de004 	pop	{lr}		; (ldr lr, [sp], #4)
    ef14:	e2811010 	add	r1, r1, #16
    ef18:	e52de004 	push	{lr}		; (str lr, [sp, #-4]!)
    ef1c:	eb000844 	bl	11034 <Drawblueblock16bpp>
    ef20:	e49de004 	pop	{lr}		; (ldr lr, [sp], #4)
    ef24:	e3a01fd9 	mov	r1, #868	; 0x364
    ef28:	e3a02f79 	mov	r2, #484	; 0x1e4
    ef2c:	e52de004 	push	{lr}		; (str lr, [sp, #-4]!)
    ef30:	eb00083f 	bl	11034 <Drawblueblock16bpp>
    ef34:	e49de004 	pop	{lr}		; (ldr lr, [sp], #4)
    ef38:	e2811010 	add	r1, r1, #16
    ef3c:	e52de004 	push	{lr}		; (str lr, [sp, #-4]!)
    ef40:	eb00083b 	bl	11034 <Drawblueblock16bpp>
    ef44:	e49de004 	pop	{lr}		; (ldr lr, [sp], #4)
    ef48:	e3a01fd9 	mov	r1, #868	; 0x364
    ef4c:	e2822010 	add	r2, r2, #16
    ef50:	e52de004 	push	{lr}		; (str lr, [sp, #-4]!)
    ef54:	eb000836 	bl	11034 <Drawblueblock16bpp>
    ef58:	e49de004 	pop	{lr}		; (ldr lr, [sp], #4)
    ef5c:	e2811010 	add	r1, r1, #16
    ef60:	e52de004 	push	{lr}		; (str lr, [sp, #-4]!)
    ef64:	eb000832 	bl	11034 <Drawblueblock16bpp>
    ef68:	e49de004 	pop	{lr}		; (ldr lr, [sp], #4)
    ef6c:	e3a01fd9 	mov	r1, #868	; 0x364
    ef70:	e2822010 	add	r2, r2, #16
    ef74:	e52de004 	push	{lr}		; (str lr, [sp, #-4]!)
    ef78:	eb00082d 	bl	11034 <Drawblueblock16bpp>
    ef7c:	e49de004 	pop	{lr}		; (ldr lr, [sp], #4)
    ef80:	e2811010 	add	r1, r1, #16
    ef84:	e52de004 	push	{lr}		; (str lr, [sp, #-4]!)
    ef88:	eb000829 	bl	11034 <Drawblueblock16bpp>
    ef8c:	e49de004 	pop	{lr}		; (ldr lr, [sp], #4)
    ef90:	e3a01fd9 	mov	r1, #868	; 0x364
    ef94:	e2822010 	add	r2, r2, #16
    ef98:	e52de004 	push	{lr}		; (str lr, [sp, #-4]!)
    ef9c:	eb000824 	bl	11034 <Drawblueblock16bpp>
    efa0:	e49de004 	pop	{lr}		; (ldr lr, [sp], #4)
    efa4:	e2811010 	add	r1, r1, #16
    efa8:	e52de004 	push	{lr}		; (str lr, [sp, #-4]!)
    efac:	eb000820 	bl	11034 <Drawblueblock16bpp>
    efb0:	e49de004 	pop	{lr}		; (ldr lr, [sp], #4)
    efb4:	e3a01fd9 	mov	r1, #868	; 0x364
    efb8:	e2822010 	add	r2, r2, #16
    efbc:	e52de004 	push	{lr}		; (str lr, [sp, #-4]!)
    efc0:	eb00081b 	bl	11034 <Drawblueblock16bpp>
    efc4:	e49de004 	pop	{lr}		; (ldr lr, [sp], #4)
    efc8:	e2811010 	add	r1, r1, #16
    efcc:	e52de004 	push	{lr}		; (str lr, [sp, #-4]!)
    efd0:	eb000817 	bl	11034 <Drawblueblock16bpp>
    efd4:	e49de004 	pop	{lr}		; (ldr lr, [sp], #4)
    efd8:	e3a01fd9 	mov	r1, #868	; 0x364
    efdc:	e2822020 	add	r2, r2, #32
    efe0:	e52de004 	push	{lr}		; (str lr, [sp, #-4]!)
    efe4:	eb000812 	bl	11034 <Drawblueblock16bpp>
    efe8:	e49de004 	pop	{lr}		; (ldr lr, [sp], #4)
    efec:	e2811010 	add	r1, r1, #16
    eff0:	e52de004 	push	{lr}		; (str lr, [sp, #-4]!)
    eff4:	eb00080e 	bl	11034 <Drawblueblock16bpp>
    eff8:	e49de004 	pop	{lr}		; (ldr lr, [sp], #4)
    effc:	e8bd07ff 	pop	{r0, r1, r2, r3, r4, r5, r6, r7, r8, r9, sl}
    f000:	e12fff1e 	bx	lr

0000f004 <DECIDECHAR>:
    f004:	e92d4010 	push	{r4, lr}
    f008:	e52de004 	push	{lr}		; (str lr, [sp, #-4]!)
    f00c:	e1a01000 	mov	r1, r0
    f010:	e3a0200a 	mov	r2, #10
    f014:	eb0003cf 	bl	ff58 <udivision>
    f018:	e1a04000 	mov	r4, r0
    f01c:	e49de004 	pop	{lr}		; (ldr lr, [sp], #4)
    f020:	eb000002 	bl	f030 <DECIDE1ST>
    f024:	e1a00004 	mov	r0, r4
    f028:	eb000016 	bl	f088 <DECIDE2ND>
    f02c:	e8bd8010 	pop	{r4, pc}

0000f030 <DECIDE1ST>:
    f030:	e52de004 	push	{lr}		; (str lr, [sp, #-4]!)
    f034:	e3510000 	cmp	r1, #0
    f038:	0b000e41 	bleq	12944 <DrawCharKNUM10>
    f03c:	e3510001 	cmp	r1, #1
    f040:	0b000e58 	bleq	129a8 <DrawCharKNUM11>
    f044:	e3510002 	cmp	r1, #2
    f048:	0b000e6f 	bleq	12a0c <DrawCharKNUM12>
    f04c:	e3510003 	cmp	r1, #3
    f050:	0b000e86 	bleq	12a70 <DrawCharKNUM13>
    f054:	e3510004 	cmp	r1, #4
    f058:	0b000ea0 	bleq	12ae0 <DrawCharKNUM14>
    f05c:	e3510005 	cmp	r1, #5
    f060:	0b000eb7 	bleq	12b44 <DrawCharKNUM15>
    f064:	e3510006 	cmp	r1, #6
    f068:	0b000ece 	bleq	12ba8 <DrawCharKNUM16>
    f06c:	e3510007 	cmp	r1, #7
    f070:	0b000ee5 	bleq	12c0c <DrawCharKNUM17>
    f074:	e3510008 	cmp	r1, #8
    f078:	0b000efc 	bleq	12c70 <DrawCharKNUM18>
    f07c:	e3510009 	cmp	r1, #9
    f080:	0b000f13 	bleq	12cd4 <DrawCharKNUM19>
    f084:	e49df004 	pop	{pc}		; (ldr pc, [sp], #4)

0000f088 <DECIDE2ND>:
    f088:	e52de004 	push	{lr}		; (str lr, [sp, #-4]!)
    f08c:	e3500000 	cmp	r0, #0
    f090:	0b000f28 	bleq	12d38 <DrawCharKNUM20>
    f094:	e3500001 	cmp	r0, #1
    f098:	0b000f3f 	bleq	12d9c <DrawCharKNUM21>
    f09c:	e3500002 	cmp	r0, #2
    f0a0:	0b000f56 	bleq	12e00 <DrawCharKNUM22>
    f0a4:	e3500003 	cmp	r0, #3
    f0a8:	0b000f6d 	bleq	12e64 <DrawCharKNUM23>
    f0ac:	e3500004 	cmp	r0, #4
    f0b0:	0b000f84 	bleq	12ec8 <DrawCharKNUM24>
    f0b4:	e3500005 	cmp	r0, #5
    f0b8:	0b000f9b 	bleq	12f2c <DrawCharKNUM25>
    f0bc:	e3500006 	cmp	r0, #6
    f0c0:	0b000fb2 	bleq	12f90 <DrawCharKNUM26>
    f0c4:	e3500007 	cmp	r0, #7
    f0c8:	0b000fc9 	bleq	12ff4 <DrawCharKNUM27>
    f0cc:	e3500008 	cmp	r0, #8
    f0d0:	0b000fe0 	bleq	13058 <DrawCharKNUM28>
    f0d4:	e3500009 	cmp	r0, #9
    f0d8:	0b000ff7 	bleq	130bc <DrawCharKNUM29>
    f0dc:	e49df004 	pop	{pc}		; (ldr pc, [sp], #4)

0000f0e0 <Drawsgblock16bpp>:
    f0e0:	e92d07ff 	push	{r0, r1, r2, r3, r4, r5, r6, r7, r8, r9, sl}
    f0e4:	e3a03e7e 	mov	r3, #2016	; 0x7e0
    f0e8:	e3a00000 	mov	r0, #0
    f0ec:	e0810502 	add	r0, r1, r2, lsl #10
    f0f0:	e1a00080 	lsl	r0, r0, #1
    f0f4:	e3a05000 	mov	r5, #0
    f0f8:	e3a06000 	mov	r6, #0

0000f0fc <sgblockfill>:
    f0fc:	e18430b0 	strh	r3, [r4, r0]
    f100:	e2800001 	add	r0, r0, #1
    f104:	e2855001 	add	r5, r5, #1
    f108:	e3550010 	cmp	r5, #16
    f10c:	1afffffa 	bne	f0fc <sgblockfill>
    f110:	e2822001 	add	r2, r2, #1
    f114:	e3a00000 	mov	r0, #0
    f118:	e0810502 	add	r0, r1, r2, lsl #10
    f11c:	e1a00080 	lsl	r0, r0, #1
    f120:	e2866001 	add	r6, r6, #1
    f124:	e3a05000 	mov	r5, #0
    f128:	e3560008 	cmp	r6, #8
    f12c:	1afffff2 	bne	f0fc <sgblockfill>
    f130:	e8bd07ff 	pop	{r0, r1, r2, r3, r4, r5, r6, r7, r8, r9, sl}
    f134:	e12fff1e 	bx	lr

0000f138 <Drawintro16bpp>:
    f138:	e3a01096 	mov	r1, #150	; 0x96
    f13c:	e3a02064 	mov	r2, #100	; 0x64
    f140:	e92d01fe 	push	{r1, r2, r3, r4, r5, r6, r7, r8}
    f144:	e3a03000 	mov	r3, #0
    f148:	e3a04000 	mov	r4, #0
    f14c:	e0814502 	add	r4, r1, r2, lsl #10
    f150:	e1a04084 	lsl	r4, r4, #1
    f154:	e3a05001 	mov	r5, #1
    f158:	e3a06b01 	mov	r6, #1024	; 0x400
    f15c:	e2466096 	sub	r6, r6, #150	; 0x96

0000f160 <introline1>:
    f160:	e18030b4 	strh	r3, [r0, r4]
    f164:	e2844001 	add	r4, r4, #1
    f168:	e2855001 	add	r5, r5, #1
    f16c:	e1550006 	cmp	r5, r6
    f170:	1afffffa 	bne	f160 <introline1>
    f174:	e2822c02 	add	r2, r2, #512	; 0x200
    f178:	e3a04000 	mov	r4, #0
    f17c:	e0814502 	add	r4, r1, r2, lsl #10
    f180:	e1a04084 	lsl	r4, r4, #1
    f184:	e3a05000 	mov	r5, #0

0000f188 <introline2>:
    f188:	e18030b4 	strh	r3, [r0, r4]
    f18c:	e2844001 	add	r4, r4, #1
    f190:	e2855001 	add	r5, r5, #1
    f194:	e1550006 	cmp	r5, r6
    f198:	1afffffa 	bne	f188 <introline2>
    f19c:	e2422c02 	sub	r2, r2, #512	; 0x200
    f1a0:	e3a04000 	mov	r4, #0
    f1a4:	e0814502 	add	r4, r1, r2, lsl #10
    f1a8:	e1a04084 	lsl	r4, r4, #1
    f1ac:	e3a05000 	mov	r5, #0
    f1b0:	e52d1004 	push	{r1}		; (str r1, [sp, #-4]!)

0000f1b4 <introline3>:
    f1b4:	e18030b4 	strh	r3, [r0, r4]
    f1b8:	e2811b01 	add	r1, r1, #1024	; 0x400
    f1bc:	e3a04000 	mov	r4, #0
    f1c0:	e0814502 	add	r4, r1, r2, lsl #10
    f1c4:	e1a04084 	lsl	r4, r4, #1
    f1c8:	e2855001 	add	r5, r5, #1
    f1cc:	e3550c02 	cmp	r5, #512	; 0x200
    f1d0:	1afffff7 	bne	f1b4 <introline3>
    f1d4:	e49d1004 	pop	{r1}		; (ldr r1, [sp], #4)
    f1d8:	e2811c02 	add	r1, r1, #512	; 0x200
    f1dc:	e241104b 	sub	r1, r1, #75	; 0x4b
    f1e0:	e3a04000 	mov	r4, #0
    f1e4:	e0814502 	add	r4, r1, r2, lsl #10
    f1e8:	e1a04084 	lsl	r4, r4, #1
    f1ec:	e3a05000 	mov	r5, #0

0000f1f0 <introline4>:
    f1f0:	e18030b4 	strh	r3, [r0, r4]
    f1f4:	e2811b01 	add	r1, r1, #1024	; 0x400
    f1f8:	e3a04000 	mov	r4, #0
    f1fc:	e0814502 	add	r4, r1, r2, lsl #10
    f200:	e1a04084 	lsl	r4, r4, #1
    f204:	e2855001 	add	r5, r5, #1
    f208:	e3550c02 	cmp	r5, #512	; 0x200
    f20c:	1afffff7 	bne	f1f0 <introline4>
    f210:	e8bd01fe 	pop	{r1, r2, r3, r4, r5, r6, r7, r8}
    f214:	e12fff1e 	bx	lr

0000f218 <CHKDIRECTIONS>:
    f218:	e3a01031 	mov	r1, #49	; 0x31
    f21c:	e1550001 	cmp	r5, r1
    f220:	ba000004 	blt	f238 <C3>
    f224:	e3a02022 	mov	r2, #34	; 0x22
    f228:	e0433002 	sub	r3, r3, r2
    f22c:	e5d33000 	ldrb	r3, [r3]
    f230:	e3530003 	cmp	r3, #3
    f234:	ba000037 	blt	f318 <C1>

0000f238 <C3>:
    f238:	e3a010ef 	mov	r1, #239	; 0xef
    f23c:	e3a02022 	mov	r2, #34	; 0x22
    f240:	e1550001 	cmp	r5, r1
    f244:	ca000005 	bgt	f260 <C4>
    f248:	e1a03004 	mov	r3, r4
    f24c:	e0833005 	add	r3, r3, r5
    f250:	e0833002 	add	r3, r3, r2
    f254:	e5d33000 	ldrb	r3, [r3]
    f258:	e3530003 	cmp	r3, #3
    f25c:	ba00007b 	blt	f450 <C2>

0000f260 <C4>:
    f260:	e1a03004 	mov	r3, r4
    f264:	e0833005 	add	r3, r3, r5
    f268:	e92d0007 	push	{r0, r1, r2}
    f26c:	e3a0001e 	mov	r0, #30
    f270:	e3a02000 	mov	r2, #0

0000f274 <C4LOOP>:
    f274:	e3500000 	cmp	r0, #0
    f278:	0a000007 	beq	f29c <C4CONT>
    f27c:	e59f14f0 	ldr	r1, [pc, #1264]	; f774 <C31+0x8>
    f280:	e0811002 	add	r1, r1, r2
    f284:	e1d110b0 	ldrh	r1, [r1]
    f288:	e1550001 	cmp	r5, r1
    f28c:	0a000009 	beq	f2b8 <C7>
    f290:	e2400001 	sub	r0, r0, #1
    f294:	e2822002 	add	r2, r2, #2
    f298:	eafffff5 	b	f274 <C4LOOP>

0000f29c <C4CONT>:
    f29c:	e8bd0007 	pop	{r0, r1, r2}
    f2a0:	e3a02002 	mov	r2, #2
    f2a4:	e0833002 	add	r3, r3, r2
    f2a8:	e5d33000 	ldrb	r3, [r3]
    f2ac:	e3530003 	cmp	r3, #3
    f2b0:	ba0000ab 	blt	f564 <C6>
    f2b4:	e92d0007 	push	{r0, r1, r2}

0000f2b8 <C7>:
    f2b8:	e8bd0007 	pop	{r0, r1, r2}
    f2bc:	e1a03004 	mov	r3, r4
    f2c0:	e0833005 	add	r3, r3, r5
    f2c4:	e92d0007 	push	{r0, r1, r2}
    f2c8:	e3a0001e 	mov	r0, #30
    f2cc:	e3a02000 	mov	r2, #0

0000f2d0 <C7LOOP>:
    f2d0:	e3500000 	cmp	r0, #0
    f2d4:	0a000007 	beq	f2f8 <C7CONT>
    f2d8:	e59f1498 	ldr	r1, [pc, #1176]	; f778 <C31+0xc>
    f2dc:	e0811002 	add	r1, r1, r2
    f2e0:	e1d110b0 	ldrh	r1, [r1]
    f2e4:	e1550001 	cmp	r5, r1
    f2e8:	0a0000b4 	beq	f5c0 <C8>
    f2ec:	e2400001 	sub	r0, r0, #1
    f2f0:	e2822002 	add	r2, r2, #2
    f2f4:	eafffff5 	b	f2d0 <C7LOOP>

0000f2f8 <C7CONT>:
    f2f8:	e8bd0007 	pop	{r0, r1, r2}
    f2fc:	e3a02002 	mov	r2, #2
    f300:	e0433002 	sub	r3, r3, r2
    f304:	e5d33000 	ldrb	r3, [r3]
    f308:	e3530003 	cmp	r3, #3
    f30c:	ba0000ae 	blt	f5cc <C9>
    f310:	e92d0007 	push	{r0, r1, r2}
    f314:	ea0000a9 	b	f5c0 <C8>

0000f318 <C1>:
    f318:	e3a010ef 	mov	r1, #239	; 0xef
    f31c:	e1550001 	cmp	r5, r1
    f320:	ca000005 	bgt	f33c <C25>
    f324:	e1a03004 	mov	r3, r4
    f328:	e0833005 	add	r3, r3, r5
    f32c:	e0833002 	add	r3, r3, r2
    f330:	e5d33000 	ldrb	r3, [r3]
    f334:	e3530003 	cmp	r3, #3
    f338:	ba0000a5 	blt	f5d4 <C10>

0000f33c <C25>:
    f33c:	e1a03004 	mov	r3, r4
    f340:	e0833005 	add	r3, r3, r5
    f344:	e92d0007 	push	{r0, r1, r2}
    f348:	e3a0001e 	mov	r0, #30
    f34c:	e3a02000 	mov	r2, #0

0000f350 <C25LOOP>:
    f350:	e3500000 	cmp	r0, #0
    f354:	0a000007 	beq	f378 <C25CONT>
    f358:	e59f1414 	ldr	r1, [pc, #1044]	; f774 <C31+0x8>
    f35c:	e0811002 	add	r1, r1, r2
    f360:	e1d110b0 	ldrh	r1, [r1]
    f364:	e1550001 	cmp	r5, r1
    f368:	0a000009 	beq	f394 <C26>
    f36c:	e2400001 	sub	r0, r0, #1
    f370:	e2822002 	add	r2, r2, #2
    f374:	eafffff5 	b	f350 <C25LOOP>

0000f378 <C25CONT>:
    f378:	e8bd0007 	pop	{r0, r1, r2}
    f37c:	e3a02002 	mov	r2, #2
    f380:	e0833002 	add	r3, r3, r2
    f384:	e5d33000 	ldrb	r3, [r3]
    f388:	e3530003 	cmp	r3, #3
    f38c:	ba000018 	blt	f3f4 <C27>
    f390:	e92d0007 	push	{r0, r1, r2}

0000f394 <C26>:
    f394:	e8bd0007 	pop	{r0, r1, r2}
    f398:	e1a03004 	mov	r3, r4
    f39c:	e0833005 	add	r3, r3, r5
    f3a0:	e92d0007 	push	{r0, r1, r2}
    f3a4:	e3a0001e 	mov	r0, #30
    f3a8:	e3a02000 	mov	r2, #0

0000f3ac <C26LOOP>:
    f3ac:	e3500000 	cmp	r0, #0
    f3b0:	0a000007 	beq	f3d4 <C26CONT>
    f3b4:	e59f13bc 	ldr	r1, [pc, #956]	; f778 <C31+0xc>
    f3b8:	e0811002 	add	r1, r1, r2
    f3bc:	e1d110b0 	ldrh	r1, [r1]
    f3c0:	e1550001 	cmp	r5, r1
    f3c4:	0a0000e0 	beq	f74c <C28>
    f3c8:	e2400001 	sub	r0, r0, #1
    f3cc:	e2822002 	add	r2, r2, #2
    f3d0:	eafffff5 	b	f3ac <C26LOOP>

0000f3d4 <C26CONT>:
    f3d4:	e8bd0007 	pop	{r0, r1, r2}
    f3d8:	e3a02002 	mov	r2, #2
    f3dc:	e0433002 	sub	r3, r3, r2
    f3e0:	e5d33000 	ldrb	r3, [r3]
    f3e4:	e3530003 	cmp	r3, #3
    f3e8:	ba0000da 	blt	f758 <C29>
    f3ec:	e92d0007 	push	{r0, r1, r2}
    f3f0:	ea0000d5 	b	f74c <C28>

0000f3f4 <C27>:
    f3f4:	e1a03004 	mov	r3, r4
    f3f8:	e0833005 	add	r3, r3, r5
    f3fc:	e92d0007 	push	{r0, r1, r2}
    f400:	e3a0001e 	mov	r0, #30
    f404:	e3a02000 	mov	r2, #0

0000f408 <C27LOOP>:
    f408:	e3500000 	cmp	r0, #0
    f40c:	0a000007 	beq	f430 <C27CONT>
    f410:	e59f1360 	ldr	r1, [pc, #864]	; f778 <C31+0xc>
    f414:	e0811002 	add	r1, r1, r2
    f418:	e1d110b0 	ldrh	r1, [r1]
    f41c:	e1550001 	cmp	r5, r1
    f420:	0a0000ce 	beq	f760 <C30>
    f424:	e2400001 	sub	r0, r0, #1
    f428:	e2822002 	add	r2, r2, #2
    f42c:	eafffff5 	b	f408 <C27LOOP>

0000f430 <C27CONT>:
    f430:	e8bd0007 	pop	{r0, r1, r2}
    f434:	e3a02002 	mov	r2, #2
    f438:	e0433002 	sub	r3, r3, r2
    f43c:	e5d33000 	ldrb	r3, [r3]
    f440:	e3530003 	cmp	r3, #3
    f444:	ba0000c8 	blt	f76c <C31>
    f448:	e92d0007 	push	{r0, r1, r2}
    f44c:	ea0000c3 	b	f760 <C30>

0000f450 <C2>:
    f450:	e1a03004 	mov	r3, r4
    f454:	e0833005 	add	r3, r3, r5
    f458:	e92d0007 	push	{r0, r1, r2}
    f45c:	e3a0001e 	mov	r0, #30
    f460:	e3a02000 	mov	r2, #0

0000f464 <C2LOOP>:
    f464:	e3500000 	cmp	r0, #0
    f468:	0a000007 	beq	f48c <C2CONT>
    f46c:	e59f1300 	ldr	r1, [pc, #768]	; f774 <C31+0x8>
    f470:	e0811002 	add	r1, r1, r2
    f474:	e1d110b0 	ldrh	r1, [r1]
    f478:	e1550001 	cmp	r5, r1
    f47c:	0a000009 	beq	f4a8 <C18>
    f480:	e2400001 	sub	r0, r0, #1
    f484:	e2822002 	add	r2, r2, #2
    f488:	eafffff5 	b	f464 <C2LOOP>

0000f48c <C2CONT>:
    f48c:	e8bd0007 	pop	{r0, r1, r2}
    f490:	e3a02002 	mov	r2, #2
    f494:	e0833002 	add	r3, r3, r2
    f498:	e5d33000 	ldrb	r3, [r3]
    f49c:	e3530003 	cmp	r3, #3
    f4a0:	ba000018 	blt	f508 <C21>
    f4a4:	e92d0007 	push	{r0, r1, r2}

0000f4a8 <C18>:
    f4a8:	e8bd0007 	pop	{r0, r1, r2}
    f4ac:	e1a03004 	mov	r3, r4
    f4b0:	e0833005 	add	r3, r3, r5
    f4b4:	e92d0007 	push	{r0, r1, r2}
    f4b8:	e3a0001e 	mov	r0, #30
    f4bc:	e3a02000 	mov	r2, #0

0000f4c0 <C18LOOP>:
    f4c0:	e3500000 	cmp	r0, #0
    f4c4:	0a000007 	beq	f4e8 <C18CONT>
    f4c8:	e59f12a8 	ldr	r1, [pc, #680]	; f778 <C31+0xc>
    f4cc:	e0811002 	add	r1, r1, r2
    f4d0:	e1d110b0 	ldrh	r1, [r1]
    f4d4:	e1550001 	cmp	r5, r1
    f4d8:	0a000090 	beq	f720 <C20>
    f4dc:	e2400001 	sub	r0, r0, #1
    f4e0:	e2822002 	add	r2, r2, #2
    f4e4:	eafffff5 	b	f4c0 <C18LOOP>

0000f4e8 <C18CONT>:
    f4e8:	e8bd0007 	pop	{r0, r1, r2}
    f4ec:	e3a02002 	mov	r2, #2
    f4f0:	e0433002 	sub	r3, r3, r2
    f4f4:	e5d33000 	ldrb	r3, [r3]
    f4f8:	e3530003 	cmp	r3, #3
    f4fc:	ba000085 	blt	f718 <C19>
    f500:	e92d0007 	push	{r0, r1, r2}
    f504:	ea000085 	b	f720 <C20>

0000f508 <C21>:
    f508:	e1a03004 	mov	r3, r4
    f50c:	e0833005 	add	r3, r3, r5
    f510:	e92d0007 	push	{r0, r1, r2}
    f514:	e3a0001e 	mov	r0, #30
    f518:	e3a02000 	mov	r2, #0

0000f51c <C21LOOP>:
    f51c:	e3500000 	cmp	r0, #0
    f520:	0a000007 	beq	f544 <C21CONT>
    f524:	e59f124c 	ldr	r1, [pc, #588]	; f778 <C31+0xc>
    f528:	e0811002 	add	r1, r1, r2
    f52c:	e1d110b0 	ldrh	r1, [r1]
    f530:	e1550001 	cmp	r5, r1
    f534:	0a00007c 	beq	f72c <C22>
    f538:	e2400001 	sub	r0, r0, #1
    f53c:	e2822002 	add	r2, r2, #2
    f540:	eafffff5 	b	f51c <C21LOOP>

0000f544 <C21CONT>:
    f544:	e8bd0007 	pop	{r0, r1, r2}
    f548:	e3a02002 	mov	r2, #2
    f54c:	e0433002 	sub	r3, r3, r2
    f550:	e5d33000 	ldrb	r3, [r3]
    f554:	e3530003 	cmp	r3, #3
    f558:	ba000076 	blt	f738 <C23>
    f55c:	e92d0007 	push	{r0, r1, r2}
    f560:	ea000071 	b	f72c <C22>

0000f564 <C6>:
    f564:	e1a03004 	mov	r3, r4
    f568:	e0833005 	add	r3, r3, r5
    f56c:	e92d0007 	push	{r0, r1, r2}
    f570:	e3a0001e 	mov	r0, #30
    f574:	e3a02000 	mov	r2, #0

0000f578 <C6LOOP>:
    f578:	e3500000 	cmp	r0, #0
    f57c:	0a000007 	beq	f5a0 <C6CONT>
    f580:	e59f11f0 	ldr	r1, [pc, #496]	; f778 <C31+0xc>
    f584:	e0811002 	add	r1, r1, r2
    f588:	e1d110b0 	ldrh	r1, [r1]
    f58c:	e1550001 	cmp	r5, r1
    f590:	0a00006a 	beq	f740 <C24>
    f594:	e2400001 	sub	r0, r0, #1
    f598:	e2822002 	add	r2, r2, #2
    f59c:	eafffff5 	b	f578 <C6LOOP>

0000f5a0 <C6CONT>:
    f5a0:	e8bd0007 	pop	{r0, r1, r2}
    f5a4:	e3a02002 	mov	r2, #2
    f5a8:	e0433002 	sub	r3, r3, r2
    f5ac:	e5d33000 	ldrb	r3, [r3]
    f5b0:	e3530003 	cmp	r3, #3
    f5b4:	ba000055 	blt	f710 <C17>
    f5b8:	e92d0007 	push	{r0, r1, r2}
    f5bc:	ea00005f 	b	f740 <C24>

0000f5c0 <C8>:
    f5c0:	e8bd0007 	pop	{r0, r1, r2}
    f5c4:	e3a01000 	mov	r1, #0
    f5c8:	e12fff1e 	bx	lr

0000f5cc <C9>:
    f5cc:	e3a01002 	mov	r1, #2
    f5d0:	e12fff1e 	bx	lr

0000f5d4 <C10>:
    f5d4:	e1a03004 	mov	r3, r4
    f5d8:	e0833005 	add	r3, r3, r5
    f5dc:	e92d0007 	push	{r0, r1, r2}
    f5e0:	e3a0001e 	mov	r0, #30
    f5e4:	e3a02000 	mov	r2, #0

0000f5e8 <C10LOOP>:
    f5e8:	e3500000 	cmp	r0, #0
    f5ec:	0a000007 	beq	f610 <C10CONT>
    f5f0:	e59f117c 	ldr	r1, [pc, #380]	; f774 <C31+0x8>
    f5f4:	e0811002 	add	r1, r1, r2
    f5f8:	e1d110b0 	ldrh	r1, [r1]
    f5fc:	e1550001 	cmp	r5, r1
    f600:	0a000009 	beq	f62c <C11>
    f604:	e2400001 	sub	r0, r0, #1
    f608:	e2822002 	add	r2, r2, #2
    f60c:	eafffff5 	b	f5e8 <C10LOOP>

0000f610 <C10CONT>:
    f610:	e8bd0007 	pop	{r0, r1, r2}
    f614:	e3a02002 	mov	r2, #2
    f618:	e0833002 	add	r3, r3, r2
    f61c:	e5d33000 	ldrb	r3, [r3]
    f620:	e3530003 	cmp	r3, #3
    f624:	ba000018 	blt	f68c <C12>
    f628:	e92d0007 	push	{r0, r1, r2}

0000f62c <C11>:
    f62c:	e8bd0007 	pop	{r0, r1, r2}
    f630:	e1a03004 	mov	r3, r4
    f634:	e0833005 	add	r3, r3, r5
    f638:	e92d0007 	push	{r0, r1, r2}
    f63c:	e3a0001e 	mov	r0, #30
    f640:	e3a02000 	mov	r2, #0

0000f644 <C11LOOP>:
    f644:	e3500000 	cmp	r0, #0
    f648:	0a000007 	beq	f66c <C11CONT>
    f64c:	e59f1124 	ldr	r1, [pc, #292]	; f778 <C31+0xc>
    f650:	e0811002 	add	r1, r1, r2
    f654:	e1d110b0 	ldrh	r1, [r1]
    f658:	e1550001 	cmp	r5, r1
    f65c:	0a000026 	beq	f6fc <C15>
    f660:	e2400001 	sub	r0, r0, #1
    f664:	e2822002 	add	r2, r2, #2
    f668:	eafffff5 	b	f644 <C11LOOP>

0000f66c <C11CONT>:
    f66c:	e8bd0007 	pop	{r0, r1, r2}
    f670:	e3a02002 	mov	r2, #2
    f674:	e0433002 	sub	r3, r3, r2
    f678:	e5d33000 	ldrb	r3, [r3]
    f67c:	e3530003 	cmp	r3, #3
    f680:	ba000020 	blt	f708 <C16>
    f684:	e92d0007 	push	{r0, r1, r2}
    f688:	ea00001b 	b	f6fc <C15>

0000f68c <C12>:
    f68c:	e1a03004 	mov	r3, r4
    f690:	e0833005 	add	r3, r3, r5
    f694:	e92d0007 	push	{r0, r1, r2}
    f698:	e3a0001e 	mov	r0, #30
    f69c:	e3a02000 	mov	r2, #0

0000f6a0 <C12LOOP>:
    f6a0:	e3500000 	cmp	r0, #0
    f6a4:	0a000007 	beq	f6c8 <C12CONT>
    f6a8:	e59f10c8 	ldr	r1, [pc, #200]	; f778 <C31+0xc>
    f6ac:	e0811002 	add	r1, r1, r2
    f6b0:	e1d110b0 	ldrh	r1, [r1]
    f6b4:	e1550001 	cmp	r5, r1
    f6b8:	0a00000c 	beq	f6f0 <C14>
    f6bc:	e2400001 	sub	r0, r0, #1
    f6c0:	e2822002 	add	r2, r2, #2
    f6c4:	eafffff5 	b	f6a0 <C12LOOP>

0000f6c8 <C12CONT>:
    f6c8:	e8bd0007 	pop	{r0, r1, r2}
    f6cc:	e3a02002 	mov	r2, #2
    f6d0:	e0433002 	sub	r3, r3, r2
    f6d4:	e5d33000 	ldrb	r3, [r3]
    f6d8:	e3530003 	cmp	r3, #3
    f6dc:	ba000001 	blt	f6e8 <C13>
    f6e0:	e92d0007 	push	{r0, r1, r2}
    f6e4:	ea000001 	b	f6f0 <C14>

0000f6e8 <C13>:
    f6e8:	e3a0100f 	mov	r1, #15
    f6ec:	e12fff1e 	bx	lr

0000f6f0 <C14>:
    f6f0:	e8bd0007 	pop	{r0, r1, r2}
    f6f4:	e3a0100d 	mov	r1, #13
    f6f8:	e12fff1e 	bx	lr

0000f6fc <C15>:
    f6fc:	e8bd0007 	pop	{r0, r1, r2}
    f700:	e3a01008 	mov	r1, #8
    f704:	e12fff1e 	bx	lr

0000f708 <C16>:
    f708:	e3a0100e 	mov	r1, #14
    f70c:	e12fff1e 	bx	lr

0000f710 <C17>:
    f710:	e3a01005 	mov	r1, #5
    f714:	e12fff1e 	bx	lr

0000f718 <C19>:
    f718:	e3a01007 	mov	r1, #7
    f71c:	e12fff1e 	bx	lr

0000f720 <C20>:
    f720:	e8bd0007 	pop	{r0, r1, r2}
    f724:	e3a01004 	mov	r1, #4
    f728:	e12fff1e 	bx	lr

0000f72c <C22>:
    f72c:	e8bd0007 	pop	{r0, r1, r2}
    f730:	e3a01006 	mov	r1, #6
    f734:	e12fff1e 	bx	lr

0000f738 <C23>:
    f738:	e3a0100c 	mov	r1, #12
    f73c:	e12fff1e 	bx	lr

0000f740 <C24>:
    f740:	e8bd0007 	pop	{r0, r1, r2}
    f744:	e3a01003 	mov	r1, #3
    f748:	e12fff1e 	bx	lr

0000f74c <C28>:
    f74c:	e8bd0007 	pop	{r0, r1, r2}
    f750:	e3a01001 	mov	r1, #1
    f754:	e12fff1e 	bx	lr

0000f758 <C29>:
    f758:	e3a0100a 	mov	r1, #10
    f75c:	e12fff1e 	bx	lr

0000f760 <C30>:
    f760:	e8bd0007 	pop	{r0, r1, r2}
    f764:	e3a01009 	mov	r1, #9
    f768:	e12fff1e 	bx	lr

0000f76c <C31>:
    f76c:	e3a0100b 	mov	r1, #11
    f770:	e12fff1e 	bx	lr
    f774:	00009930 	.word	0x00009930
    f778:	0000996c 	.word	0x0000996c

0000f77c <main>:
    f77c:	e3a0d902 	mov	sp, #32768	; 0x8000
    f780:	ebfff8b5 	bl	da5c <EnableJTAG>

0000f784 <gameReset>:
    f784:	ebfff8d7 	bl	dae8 <InitFrameBuffer>
    f788:	e3500000 	cmp	r0, #0
    f78c:	0a000139 	beq	fc78 <haltLoop$>
    f790:	e52d0004 	push	{r0}		; (str r0, [sp, #-4]!)
    f794:	e49d4004 	pop	{r4}		; (ldr r4, [sp], #4)
    f798:	e59f04dc 	ldr	r0, [pc, #1244]	; fc7c <haltLoop$+0x4>
    f79c:	e5804000 	str	r4, [r0]
    f7a0:	eb000609 	bl	10fcc <InitSNES>
    f7a4:	e52de004 	push	{lr}		; (str lr, [sp, #-4]!)
    f7a8:	eb000134 	bl	fc80 <MAZEGENMAIN>
    f7ac:	e49de004 	pop	{lr}		; (ldr lr, [sp], #4)
    f7b0:	e52d0004 	push	{r0}		; (str r0, [sp, #-4]!)
    f7b4:	e49da004 	pop	{sl}		; (ldr sl, [sp], #4)
    f7b8:	e92d0006 	push	{r1, r2}
    f7bc:	e8bd0060 	pop	{r5, r6}
    f7c0:	e2466001 	sub	r6, r6, #1
    f7c4:	e52da004 	push	{sl}		; (str sl, [sp, #-4]!)
    f7c8:	e49d3004 	pop	{r3}		; (ldr r3, [sp], #4)
    f7cc:	e52d4004 	push	{r4}		; (str r4, [sp, #-4]!)
    f7d0:	e49d0004 	pop	{r0}		; (ldr r0, [sp], #4)
    f7d4:	e52de004 	push	{lr}		; (str lr, [sp, #-4]!)
    f7d8:	ebfff8db 	bl	db4c <Whitescreen16bpp>
    f7dc:	e49de004 	pop	{lr}		; (ldr lr, [sp], #4)
    f7e0:	ebfff700 	bl	d3e8 <Title>
    f7e4:	e52de004 	push	{lr}		; (str lr, [sp, #-4]!)
    f7e8:	ebfff86c 	bl	d9a0 <Drawmaze>
    f7ec:	e49de004 	pop	{lr}		; (ldr lr, [sp], #4)
    f7f0:	e3a09001 	mov	r9, #1
    f7f4:	eb000b41 	bl	12500 <DrawCharK>
    f7f8:	eb000b58 	bl	12560 <DrawCharE>
    f7fc:	eb000b70 	bl	125c4 <DrawCharY>
    f800:	eb000b87 	bl	12624 <DrawCharS>
    f804:	eb000b9f 	bl	12688 <DrawCharSPC>
    f808:	eb000bb7 	bl	126ec <DrawCharM>
    f80c:	eb000bcf 	bl	12750 <DrawCharO>
    f810:	eb000be7 	bl	127b4 <DrawCharV>
    f814:	eb000bff 	bl	12818 <DrawCharE2>
    f818:	eb000c17 	bl	1287c <DrawCharS2>
    f81c:	eb000c2f 	bl	128e0 <DrawCharSPC2>
    f820:	e3a07096 	mov	r7, #150	; 0x96
    f824:	e3a08001 	mov	r8, #1
    f828:	e1a00008 	mov	r0, r8
    f82c:	ebfffdf4 	bl	f004 <DECIDECHAR>
    f830:	e1a00007 	mov	r0, r7
    f834:	eb00035c 	bl	105ac <DECIDECHAR2>
    f838:	ebfff198 	bl	bea0 <DRAWNAMES>

0000f83c <inputLoop>:
    f83c:	eb001076 	bl	13a1c <ReadSNES>
    f840:	e3500005 	cmp	r0, #5
    f844:	0a00000a 	beq	f874 <checkValidUp>
    f848:	e3500006 	cmp	r0, #6
    f84c:	0a000018 	beq	f8b4 <checkValidDown>
    f850:	e3500007 	cmp	r0, #7
    f854:	0a000026 	beq	f8f4 <checkValidLeft>
    f858:	e3500008 	cmp	r0, #8
    f85c:	0a000034 	beq	f934 <checkValidRight>
    f860:	e3500009 	cmp	r0, #9
    f864:	0a000096 	beq	fac4 <checkDoorOpen>
    f868:	e3500004 	cmp	r0, #4
    f86c:	0affffc4 	beq	f784 <gameReset>
    f870:	eafffff1 	b	f83c <inputLoop>

0000f874 <checkValidUp>:
    f874:	e2462001 	sub	r2, r6, #1
    f878:	e3a00011 	mov	r0, #17
    f87c:	e0020290 	mul	r2, r0, r2
    f880:	e0822005 	add	r2, r2, r5
    f884:	e082200a 	add	r2, r2, sl
    f888:	e5d23000 	ldrb	r3, [r2]
    f88c:	e3330003 	teq	r3, #3
    f890:	02466001 	subeq	r6, r6, #1
    f894:	0a000036 	beq	f974 <moveUp>
    f898:	e3330005 	teq	r3, #5
    f89c:	02466001 	subeq	r6, r6, #1
    f8a0:	0a000033 	beq	f974 <moveUp>
    f8a4:	e3330004 	teq	r3, #4
    f8a8:	02466001 	subeq	r6, r6, #1
    f8ac:	0a000039 	beq	f998 <moveUpKey>
    f8b0:	ea0000d4 	b	fc08 <waitNoInput>

0000f8b4 <checkValidDown>:
    f8b4:	e2862001 	add	r2, r6, #1
    f8b8:	e3a00011 	mov	r0, #17
    f8bc:	e0020290 	mul	r2, r0, r2
    f8c0:	e0822005 	add	r2, r2, r5
    f8c4:	e082200a 	add	r2, r2, sl
    f8c8:	e5d23000 	ldrb	r3, [r2]
    f8cc:	e3330003 	teq	r3, #3
    f8d0:	02866001 	addeq	r6, r6, #1
    f8d4:	0a00003b 	beq	f9c8 <moveDown>
    f8d8:	e3330005 	teq	r3, #5
    f8dc:	02866001 	addeq	r6, r6, #1
    f8e0:	0a000038 	beq	f9c8 <moveDown>
    f8e4:	e3330004 	teq	r3, #4
    f8e8:	02866001 	addeq	r6, r6, #1
    f8ec:	0a00003e 	beq	f9ec <moveDownKey>
    f8f0:	ea0000c4 	b	fc08 <waitNoInput>

0000f8f4 <checkValidLeft>:
    f8f4:	e3a00011 	mov	r0, #17
    f8f8:	e0020096 	mul	r2, r6, r0
    f8fc:	e0822005 	add	r2, r2, r5
    f900:	e2422001 	sub	r2, r2, #1
    f904:	e082200a 	add	r2, r2, sl
    f908:	e5d23000 	ldrb	r3, [r2]
    f90c:	e3330003 	teq	r3, #3
    f910:	02455001 	subeq	r5, r5, #1
    f914:	0a000040 	beq	fa1c <moveLeft>
    f918:	e3330005 	teq	r3, #5
    f91c:	02455001 	subeq	r5, r5, #1
    f920:	0a00003d 	beq	fa1c <moveLeft>
    f924:	e3330004 	teq	r3, #4
    f928:	02455001 	subeq	r5, r5, #1
    f92c:	0a000043 	beq	fa40 <moveLeftKey>
    f930:	ea0000b4 	b	fc08 <waitNoInput>

0000f934 <checkValidRight>:
    f934:	e3a00011 	mov	r0, #17
    f938:	e0020096 	mul	r2, r6, r0
    f93c:	e0822005 	add	r2, r2, r5
    f940:	e2822001 	add	r2, r2, #1
    f944:	e082200a 	add	r2, r2, sl
    f948:	e5d23000 	ldrb	r3, [r2]
    f94c:	e3330003 	teq	r3, #3
    f950:	02855001 	addeq	r5, r5, #1
    f954:	0a000045 	beq	fa70 <moveRight>
    f958:	e3330005 	teq	r3, #5
    f95c:	02855001 	addeq	r5, r5, #1
    f960:	0a000042 	beq	fa70 <moveRight>
    f964:	e3330004 	teq	r3, #4
    f968:	02855001 	addeq	r5, r5, #1
    f96c:	0a000048 	beq	fa94 <moveRightKey>
    f970:	ea0000a4 	b	fc08 <waitNoInput>

0000f974 <moveUp>:
    f974:	e3a00006 	mov	r0, #6
    f978:	e5c20000 	strb	r0, [r2]
    f97c:	e2822011 	add	r2, r2, #17
    f980:	e3a00005 	mov	r0, #5
    f984:	e5c20000 	strb	r0, [r2]
    f988:	eb0000ae 	bl	fc48 <deleteAction>
    f98c:	e2477001 	sub	r7, r7, #1
    f990:	eb0000b2 	bl	fc60 <redrawAction>
    f994:	ea000089 	b	fbc0 <checkState>

0000f998 <moveUpKey>:
    f998:	e3a00006 	mov	r0, #6
    f99c:	e5c20000 	strb	r0, [r2]
    f9a0:	e2822011 	add	r2, r2, #17
    f9a4:	e3a00005 	mov	r0, #5
    f9a8:	e5c20000 	strb	r0, [r2]
    f9ac:	eb000099 	bl	fc18 <deleteKey>
    f9b0:	e2888001 	add	r8, r8, #1
    f9b4:	eb00009d 	bl	fc30 <redrawKey>
    f9b8:	eb0000a2 	bl	fc48 <deleteAction>
    f9bc:	e2477001 	sub	r7, r7, #1
    f9c0:	eb0000a6 	bl	fc60 <redrawAction>
    f9c4:	ea00007d 	b	fbc0 <checkState>

0000f9c8 <moveDown>:
    f9c8:	e3a00006 	mov	r0, #6
    f9cc:	e5c20000 	strb	r0, [r2]
    f9d0:	e2422011 	sub	r2, r2, #17
    f9d4:	e3a00005 	mov	r0, #5
    f9d8:	e5c20000 	strb	r0, [r2]
    f9dc:	eb000099 	bl	fc48 <deleteAction>
    f9e0:	e2477001 	sub	r7, r7, #1
    f9e4:	eb00009d 	bl	fc60 <redrawAction>
    f9e8:	ea000074 	b	fbc0 <checkState>

0000f9ec <moveDownKey>:
    f9ec:	e3a00006 	mov	r0, #6
    f9f0:	e5c20000 	strb	r0, [r2]
    f9f4:	e2422011 	sub	r2, r2, #17
    f9f8:	e3a00005 	mov	r0, #5
    f9fc:	e5c20000 	strb	r0, [r2]
    fa00:	eb000084 	bl	fc18 <deleteKey>
    fa04:	e2888001 	add	r8, r8, #1
    fa08:	eb000088 	bl	fc30 <redrawKey>
    fa0c:	eb00008d 	bl	fc48 <deleteAction>
    fa10:	e2477001 	sub	r7, r7, #1
    fa14:	eb000091 	bl	fc60 <redrawAction>
    fa18:	ea000068 	b	fbc0 <checkState>

0000fa1c <moveLeft>:
    fa1c:	e3a00006 	mov	r0, #6
    fa20:	e5c20000 	strb	r0, [r2]
    fa24:	e2822001 	add	r2, r2, #1
    fa28:	e3a00005 	mov	r0, #5
    fa2c:	e5c20000 	strb	r0, [r2]
    fa30:	eb000084 	bl	fc48 <deleteAction>
    fa34:	e2477001 	sub	r7, r7, #1
    fa38:	eb000088 	bl	fc60 <redrawAction>
    fa3c:	ea00005f 	b	fbc0 <checkState>

0000fa40 <moveLeftKey>:
    fa40:	e3a00006 	mov	r0, #6
    fa44:	e5c20000 	strb	r0, [r2]
    fa48:	e2822001 	add	r2, r2, #1
    fa4c:	e3a00005 	mov	r0, #5
    fa50:	e5c20000 	strb	r0, [r2]
    fa54:	eb00006f 	bl	fc18 <deleteKey>
    fa58:	e2888001 	add	r8, r8, #1
    fa5c:	eb000073 	bl	fc30 <redrawKey>
    fa60:	eb000078 	bl	fc48 <deleteAction>
    fa64:	e2477001 	sub	r7, r7, #1
    fa68:	eb00007c 	bl	fc60 <redrawAction>
    fa6c:	ea000053 	b	fbc0 <checkState>

0000fa70 <moveRight>:
    fa70:	e3a00006 	mov	r0, #6
    fa74:	e5c20000 	strb	r0, [r2]
    fa78:	e2422001 	sub	r2, r2, #1
    fa7c:	e3a00005 	mov	r0, #5
    fa80:	e5c20000 	strb	r0, [r2]
    fa84:	eb00006f 	bl	fc48 <deleteAction>
    fa88:	e2477001 	sub	r7, r7, #1
    fa8c:	eb000073 	bl	fc60 <redrawAction>
    fa90:	ea00004a 	b	fbc0 <checkState>

0000fa94 <moveRightKey>:
    fa94:	e3a00006 	mov	r0, #6
    fa98:	e5c20000 	strb	r0, [r2]
    fa9c:	e2422001 	sub	r2, r2, #1
    faa0:	e3a00005 	mov	r0, #5
    faa4:	e5c20000 	strb	r0, [r2]
    faa8:	eb00005a 	bl	fc18 <deleteKey>
    faac:	e2888001 	add	r8, r8, #1
    fab0:	eb00005e 	bl	fc30 <redrawKey>
    fab4:	eb000063 	bl	fc48 <deleteAction>
    fab8:	e2477001 	sub	r7, r7, #1
    fabc:	eb000067 	bl	fc60 <redrawAction>
    fac0:	ea00003e 	b	fbc0 <checkState>

0000fac4 <checkDoorOpen>:
    fac4:	e3380000 	teq	r8, #0
    fac8:	0a00004e 	beq	fc08 <waitNoInput>
    facc:	e3a00011 	mov	r0, #17
    fad0:	e0020096 	mul	r2, r6, r0
    fad4:	e0822005 	add	r2, r2, r5
    fad8:	e082200a 	add	r2, r2, sl
    fadc:	e5d21011 	ldrb	r1, [r2, #17]
    fae0:	e3510001 	cmp	r1, #1
    fae4:	0a000011 	beq	fb30 <validDoorDown>
    fae8:	e3510002 	cmp	r1, #2
    faec:	0a00003b 	beq	fbe0 <winState>
    faf0:	e5521011 	ldrb	r1, [r2, #-17]
    faf4:	e3510001 	cmp	r1, #1
    faf8:	0a000015 	beq	fb54 <validDoorUp>
    fafc:	e3510002 	cmp	r1, #2
    fb00:	0a000036 	beq	fbe0 <winState>
    fb04:	e5521001 	ldrb	r1, [r2, #-1]
    fb08:	e3510001 	cmp	r1, #1
    fb0c:	0a000019 	beq	fb78 <validDoorLeft>
    fb10:	e3510002 	cmp	r1, #2
    fb14:	0a000031 	beq	fbe0 <winState>
    fb18:	e5d21001 	ldrb	r1, [r2, #1]
    fb1c:	e3510001 	cmp	r1, #1
    fb20:	0a00001d 	beq	fb9c <validDoorRight>
    fb24:	e3510002 	cmp	r1, #2
    fb28:	0a00002c 	beq	fbe0 <winState>
    fb2c:	1a000035 	bne	fc08 <waitNoInput>

0000fb30 <validDoorDown>:
    fb30:	e3a00005 	mov	r0, #5
    fb34:	e5c20011 	strb	r0, [r2, #17]
    fb38:	eb000036 	bl	fc18 <deleteKey>
    fb3c:	e2488001 	sub	r8, r8, #1
    fb40:	eb00003a 	bl	fc30 <redrawKey>
    fb44:	eb00003f 	bl	fc48 <deleteAction>
    fb48:	e2477001 	sub	r7, r7, #1
    fb4c:	eb000043 	bl	fc60 <redrawAction>
    fb50:	ea00001a 	b	fbc0 <checkState>

0000fb54 <validDoorUp>:
    fb54:	e3a00005 	mov	r0, #5
    fb58:	e5420011 	strb	r0, [r2, #-17]
    fb5c:	eb00002d 	bl	fc18 <deleteKey>
    fb60:	e2488001 	sub	r8, r8, #1
    fb64:	eb000031 	bl	fc30 <redrawKey>
    fb68:	eb000036 	bl	fc48 <deleteAction>
    fb6c:	e2477001 	sub	r7, r7, #1
    fb70:	eb00003a 	bl	fc60 <redrawAction>
    fb74:	ea000011 	b	fbc0 <checkState>

0000fb78 <validDoorLeft>:
    fb78:	e3a00005 	mov	r0, #5
    fb7c:	e5420001 	strb	r0, [r2, #-1]
    fb80:	eb000024 	bl	fc18 <deleteKey>
    fb84:	e2488001 	sub	r8, r8, #1
    fb88:	eb000028 	bl	fc30 <redrawKey>
    fb8c:	eb00002d 	bl	fc48 <deleteAction>
    fb90:	e2477001 	sub	r7, r7, #1
    fb94:	eb000031 	bl	fc60 <redrawAction>
    fb98:	ea000008 	b	fbc0 <checkState>

0000fb9c <validDoorRight>:
    fb9c:	e3a00005 	mov	r0, #5
    fba0:	e5c20001 	strb	r0, [r2, #1]
    fba4:	eb00001b 	bl	fc18 <deleteKey>
    fba8:	e2488001 	sub	r8, r8, #1
    fbac:	eb00001f 	bl	fc30 <redrawKey>
    fbb0:	eb000024 	bl	fc48 <deleteAction>
    fbb4:	e2477001 	sub	r7, r7, #1
    fbb8:	eb000028 	bl	fc60 <redrawAction>
    fbbc:	eaffffff 	b	fbc0 <checkState>

0000fbc0 <checkState>:
    fbc0:	e52da004 	push	{sl}		; (str sl, [sp, #-4]!)
    fbc4:	e49d3004 	pop	{r3}		; (ldr r3, [sp], #4)
    fbc8:	eb000fee 	bl	13b88 <Redrawmaze>
    fbcc:	e3370000 	teq	r7, #0
    fbd0:	0a000000 	beq	fbd8 <loseState>
    fbd4:	ea00000b 	b	fc08 <waitNoInput>

0000fbd8 <loseState>:
    fbd8:	eb000542 	bl	110e8 <Lost>
    fbdc:	ea000001 	b	fbe8 <waitNoInputEnd>

0000fbe0 <winState>:
    fbe0:	ebfff7eb 	bl	db94 <Win>
    fbe4:	eaffffff 	b	fbe8 <waitNoInputEnd>

0000fbe8 <waitNoInputEnd>:
    fbe8:	eb000f8b 	bl	13a1c <ReadSNES>
    fbec:	e3500000 	cmp	r0, #0
    fbf0:	0a000000 	beq	fbf8 <replayTrigger>
    fbf4:	eafffffb 	b	fbe8 <waitNoInputEnd>

0000fbf8 <replayTrigger>:
    fbf8:	eb000f87 	bl	13a1c <ReadSNES>
    fbfc:	e3500000 	cmp	r0, #0
    fc00:	1afffedf 	bne	f784 <gameReset>
    fc04:	eafffffb 	b	fbf8 <replayTrigger>

0000fc08 <waitNoInput>:
    fc08:	eb000f83 	bl	13a1c <ReadSNES>
    fc0c:	e3500000 	cmp	r0, #0
    fc10:	0affff09 	beq	f83c <inputLoop>
    fc14:	eafffffb 	b	fc08 <waitNoInput>

0000fc18 <deleteKey>:
    fc18:	e3a09000 	mov	r9, #0
    fc1c:	e1a00008 	mov	r0, r8
    fc20:	e52de004 	push	{lr}		; (str lr, [sp, #-4]!)
    fc24:	ebfffcf6 	bl	f004 <DECIDECHAR>
    fc28:	e49de004 	pop	{lr}		; (ldr lr, [sp], #4)
    fc2c:	e12fff1e 	bx	lr

0000fc30 <redrawKey>:
    fc30:	e3a09001 	mov	r9, #1
    fc34:	e1a00008 	mov	r0, r8
    fc38:	e52de004 	push	{lr}		; (str lr, [sp, #-4]!)
    fc3c:	ebfffcf0 	bl	f004 <DECIDECHAR>
    fc40:	e49de004 	pop	{lr}		; (ldr lr, [sp], #4)
    fc44:	e12fff1e 	bx	lr

0000fc48 <deleteAction>:
    fc48:	e3a09000 	mov	r9, #0
    fc4c:	e1a00007 	mov	r0, r7
    fc50:	e52de004 	push	{lr}		; (str lr, [sp, #-4]!)
    fc54:	eb000254 	bl	105ac <DECIDECHAR2>
    fc58:	e49de004 	pop	{lr}		; (ldr lr, [sp], #4)
    fc5c:	e12fff1e 	bx	lr

0000fc60 <redrawAction>:
    fc60:	e3a09001 	mov	r9, #1
    fc64:	e1a00007 	mov	r0, r7
    fc68:	e52de004 	push	{lr}		; (str lr, [sp, #-4]!)
    fc6c:	eb00024e 	bl	105ac <DECIDECHAR2>
    fc70:	e49de004 	pop	{lr}		; (ldr lr, [sp], #4)
    fc74:	e12fff1e 	bx	lr

0000fc78 <haltLoop$>:
    fc78:	eafffffe 	b	fc78 <haltLoop$>
    fc7c:	00009c38 	.word	0x00009c38

0000fc80 <MAZEGENMAIN>:
    fc80:	e59f00c8 	ldr	r0, [pc, #200]	; fd50 <MAZEGEN+0x70>
    fc84:	e5900000 	ldr	r0, [r0]
    fc88:	e3a01000 	mov	r1, #0
    fc8c:	e3a02000 	mov	r2, #0
    fc90:	e59f30bc 	ldr	r3, [pc, #188]	; fd54 <MAZEGEN+0x74>

0000fc94 <CLEARARRAY>:
    fc94:	e5c32000 	strb	r2, [r3]
    fc98:	e2811001 	add	r1, r1, #1
    fc9c:	e2833001 	add	r3, r3, #1
    fca0:	e1500001 	cmp	r0, r1
    fca4:	1afffffa 	bne	fc94 <CLEARARRAY>
    fca8:	e59f00a8 	ldr	r0, [pc, #168]	; fd58 <MAZEGEN+0x78>
    fcac:	e5900000 	ldr	r0, [r0]
    fcb0:	e59f60a4 	ldr	r6, [pc, #164]	; fd5c <MAZEGEN+0x7c>
    fcb4:	e5860000 	str	r0, [r6]
    fcb8:	e3a00000 	mov	r0, #0
    fcbc:	e3a06000 	mov	r6, #0
    fcc0:	e3a00008 	mov	r0, #8
    fcc4:	e52de004 	push	{lr}		; (str lr, [sp, #-4]!)
    fcc8:	eb000080 	bl	fed0 <randomization>
    fccc:	e49de004 	pop	{lr}		; (ldr lr, [sp], #4)
    fcd0:	e52de004 	push	{lr}		; (str lr, [sp, #-4]!)
    fcd4:	eb000001 	bl	fce0 <MAZEGEN>
    fcd8:	e49de004 	pop	{lr}		; (ldr lr, [sp], #4)
    fcdc:	e12fff1e 	bx	lr

0000fce0 <MAZEGEN>:
    fce0:	e92d07f0 	push	{r4, r5, r6, r7, r8, r9, sl}
    fce4:	e3a00001 	mov	r0, #1
    fce8:	e0422000 	sub	r2, r2, r0
    fcec:	e59f006c 	ldr	r0, [pc, #108]	; fd60 <MAZEGEN+0x80>
    fcf0:	e1a02082 	lsl	r2, r2, #1
    fcf4:	e0800002 	add	r0, r0, r2
    fcf8:	e5d01000 	ldrb	r1, [r0]
    fcfc:	e0811201 	add	r1, r1, r1, lsl #4
    fd00:	e5d02001 	ldrb	r2, [r0, #1]
    fd04:	e0811002 	add	r1, r1, r2
    fd08:	e59f0044 	ldr	r0, [pc, #68]	; fd54 <MAZEGEN+0x74>
    fd0c:	e0800001 	add	r0, r0, r1
    fd10:	e1a05001 	mov	r5, r1
    fd14:	e3a01002 	mov	r1, #2
    fd18:	e5c01000 	strb	r1, [r0]
    fd1c:	e2400001 	sub	r0, r0, #1
    fd20:	e3a01003 	mov	r1, #3
    fd24:	e5c01000 	strb	r1, [r0]
    fd28:	e3a00001 	mov	r0, #1
    fd2c:	e3a0a001 	mov	sl, #1
    fd30:	e3a09000 	mov	r9, #0
    fd34:	e3a08003 	mov	r8, #3
    fd38:	e3a07000 	mov	r7, #0
    fd3c:	e3a06000 	mov	r6, #0
    fd40:	e2455001 	sub	r5, r5, #1
    fd44:	e52d5004 	push	{r5}		; (str r5, [sp, #-4]!)
    fd48:	e52d4004 	push	{r4}		; (str r4, [sp, #-4]!)
    fd4c:	e59f4010 	ldr	r4, [pc, #16]	; fd64 <MAZEGEN+0x84>
    fd50:	00009bf1 	.word	0x00009bf1
    fd54:	00009ad0 	.word	0x00009ad0
    fd58:	20003004 	.word	0x20003004
    fd5c:	00009c30 	.word	0x00009c30
    fd60:	00009c00 	.word	0x00009c00
    fd64:	00009c10 	.word	0x00009c10
    fd68:	e1c450b0 	strh	r5, [r4]
    fd6c:	e49d4004 	pop	{r4}		; (ldr r4, [sp], #4)
    fd70:	e59f421c 	ldr	r4, [pc, #540]	; ff94 <divide_end+0x4>

0000fd74 <mazeloop>:
    fd74:	e3500000 	cmp	r0, #0
    fd78:	0a00002f 	beq	fe3c <loopout>
    fd7c:	e1a03004 	mov	r3, r4
    fd80:	e0833005 	add	r3, r3, r5
    fd84:	e52de004 	push	{lr}		; (str lr, [sp, #-4]!)
    fd88:	ebfffd22 	bl	f218 <CHKDIRECTIONS>
    fd8c:	e49de004 	pop	{lr}		; (ldr lr, [sp], #4)

0000fd90 <debug>:
    fd90:	e3510000 	cmp	r1, #0
    fd94:	0a000012 	beq	fde4 <noway>

0000fd98 <setway>:
    fd98:	e92d0050 	push	{r4, r6}
    fd9c:	e59f41f4 	ldr	r4, [pc, #500]	; ff98 <divide_end+0x8>
    fda0:	e3a06001 	mov	r6, #1
    fda4:	e5c46000 	strb	r6, [r4]
    fda8:	e8bd0050 	pop	{r4, r6}
    fdac:	e52d0004 	push	{r0}		; (str r0, [sp, #-4]!)
    fdb0:	e52de004 	push	{lr}		; (str lr, [sp, #-4]!)
    fdb4:	ebffee91 	bl	b800 <SETDIRECTIONS>
    fdb8:	e49de004 	pop	{lr}		; (ldr lr, [sp], #4)
    fdbc:	e49d0004 	pop	{r0}		; (ldr r0, [sp], #4)
    fdc0:	e2800001 	add	r0, r0, #1
    fdc4:	e0433004 	sub	r3, r3, r4
    fdc8:	e52d3004 	push	{r3}		; (str r3, [sp, #-4]!)
    fdcc:	e1a05003 	mov	r5, r3
    fdd0:	e52d4004 	push	{r4}		; (str r4, [sp, #-4]!)
    fdd4:	e59f41c0 	ldr	r4, [pc, #448]	; ff9c <divide_end+0xc>
    fdd8:	e1c430b0 	strh	r3, [r4]
    fddc:	e49d4004 	pop	{r4}		; (ldr r4, [sp], #4)
    fde0:	eaffffe3 	b	fd74 <mazeloop>

0000fde4 <noway>:
    fde4:	e49d5004 	pop	{r5}		; (ldr r5, [sp], #4)
    fde8:	e92d00d0 	push	{r4, r6, r7}
    fdec:	e59f41ac 	ldr	r4, [pc, #428]	; ffa0 <divide_end+0x10>
    fdf0:	e59f61ac 	ldr	r6, [pc, #428]	; ffa4 <divide_end+0x14>
    fdf4:	e59f719c 	ldr	r7, [pc, #412]	; ff98 <divide_end+0x8>
    fdf8:	e5d77000 	ldrb	r7, [r7]
    fdfc:	e3570001 	cmp	r7, #1
    fe00:	1a00000a 	bne	fe30 <NOSTORE>
    fe04:	e5d66000 	ldrb	r6, [r6]
    fe08:	e0844086 	add	r4, r4, r6, lsl #1
    fe0c:	e1c450b0 	strh	r5, [r4]
    fe10:	e2864001 	add	r4, r6, #1
    fe14:	e59f6188 	ldr	r6, [pc, #392]	; ffa4 <divide_end+0x14>
    fe18:	e5c64000 	strb	r4, [r6]
    fe1c:	e3a04000 	mov	r4, #0
    fe20:	e59f7170 	ldr	r7, [pc, #368]	; ff98 <divide_end+0x8>
    fe24:	e5c74000 	strb	r4, [r7]
    fe28:	e8bd00d0 	pop	{r4, r6, r7}
    fe2c:	ea000000 	b	fe34 <NOSTORE2>

0000fe30 <NOSTORE>:
    fe30:	e8bd00d0 	pop	{r4, r6, r7}

0000fe34 <NOSTORE2>:
    fe34:	e2400001 	sub	r0, r0, #1
    fe38:	eaffffcd 	b	fd74 <mazeloop>

0000fe3c <loopout>:
    fe3c:	e92d000e 	push	{r1, r2, r3}
    fe40:	e59f015c 	ldr	r0, [pc, #348]	; ffa4 <divide_end+0x14>
    fe44:	e5d00000 	ldrb	r0, [r0]
    fe48:	e52de004 	push	{lr}		; (str lr, [sp, #-4]!)
    fe4c:	eb00001f 	bl	fed0 <randomization>
    fe50:	e49de004 	pop	{lr}		; (ldr lr, [sp], #4)
    fe54:	e2422001 	sub	r2, r2, #1
    fe58:	e59f1140 	ldr	r1, [pc, #320]	; ffa0 <divide_end+0x10>
    fe5c:	e0811082 	add	r1, r1, r2, lsl #1
    fe60:	e1d110b0 	ldrh	r1, [r1]
    fe64:	e52d4004 	push	{r4}		; (str r4, [sp, #-4]!)
    fe68:	e52d1004 	push	{r1}		; (str r1, [sp, #-4]!)
    fe6c:	e3a02011 	mov	r2, #17
    fe70:	e92d000d 	push	{r0, r2, r3}
    fe74:	e52de004 	push	{lr}		; (str lr, [sp, #-4]!)
    fe78:	eb000036 	bl	ff58 <udivision>
    fe7c:	e49de004 	pop	{lr}		; (ldr lr, [sp], #4)
    fe80:	e1a04000 	mov	r4, r0
    fe84:	e8bd000d 	pop	{r0, r2, r3}
    fe88:	e49d1004 	pop	{r1}		; (ldr r1, [sp], #4)
    fe8c:	e2847001 	add	r7, r4, #1
    fe90:	e0844204 	add	r4, r4, r4, lsl #4
    fe94:	e52d1004 	push	{r1}		; (str r1, [sp, #-4]!)
    fe98:	e0411004 	sub	r1, r1, r4
    fe9c:	e1a06001 	mov	r6, r1
    fea0:	e49d1004 	pop	{r1}		; (ldr r1, [sp], #4)
    fea4:	e49d4004 	pop	{r4}		; (ldr r4, [sp], #4)
    fea8:	e1a00001 	mov	r0, r1
    feac:	e8bd000e 	pop	{r1, r2, r3}
    feb0:	e0800004 	add	r0, r0, r4
    feb4:	e3a01005 	mov	r1, #5
    feb8:	e5c01000 	strb	r1, [r0]
    febc:	e1a00004 	mov	r0, r4
    fec0:	e1a01006 	mov	r1, r6
    fec4:	e1a02007 	mov	r2, r7
    fec8:	e8bd07f0 	pop	{r4, r5, r6, r7, r8, r9, sl}
    fecc:	e12fff1e 	bx	lr

0000fed0 <randomization>:
    fed0:	e92d00e0 	push	{r5, r6, r7}
    fed4:	e1a05000 	mov	r5, r0
    fed8:	e59f00c8 	ldr	r0, [pc, #200]	; ffa8 <divide_end+0x18>
    fedc:	e5900000 	ldr	r0, [r0]
    fee0:	e3a01001 	mov	r1, #1
    fee4:	e11100a1 	tst	r1, r1, lsr #1
    fee8:	e1b02060 	rrxs	r2, r0
    feec:	e0a11001 	adc	r1, r1, r1
    fef0:	e0222600 	eor	r2, r2, r0, lsl #12
    fef4:	e0220a22 	eor	r0, r2, r2, lsr #20
    fef8:	e59f60a8 	ldr	r6, [pc, #168]	; ffa8 <divide_end+0x18>
    fefc:	e5860000 	str	r0, [r6]
    ff00:	e59f10a4 	ldr	r1, [pc, #164]	; ffac <divide_end+0x1c>
    ff04:	e5911000 	ldr	r1, [r1]
    ff08:	e1a02005 	mov	r2, r5
    ff0c:	e52de004 	push	{lr}		; (str lr, [sp, #-4]!)
    ff10:	eb000010 	bl	ff58 <udivision>
    ff14:	e49de004 	pop	{lr}		; (ldr lr, [sp], #4)
    ff18:	e59f1088 	ldr	r1, [pc, #136]	; ffa8 <divide_end+0x18>
    ff1c:	e5911000 	ldr	r1, [r1]
    ff20:	e59f7088 	ldr	r7, [pc, #136]	; ffb0 <divide_end+0x20>
    ff24:	e5977000 	ldr	r7, [r7]
    ff28:	e1a07507 	lsl	r7, r7, #10
    ff2c:	e1c11007 	bic	r1, r1, r7
    ff30:	e3a07000 	mov	r7, #0

0000ff34 <randloop>:
    ff34:	e1510000 	cmp	r1, r0
    ff38:	9a000002 	bls	ff48 <randexit>
    ff3c:	e1a00080 	lsl	r0, r0, #1
    ff40:	e2877001 	add	r7, r7, #1
    ff44:	eafffffa 	b	ff34 <randloop>

0000ff48 <randexit>:
    ff48:	e2877001 	add	r7, r7, #1
    ff4c:	e1a02007 	mov	r2, r7
    ff50:	e8bd00e0 	pop	{r5, r6, r7}
    ff54:	e12fff1e 	bx	lr

0000ff58 <udivision>:
    ff58:	e3520000 	cmp	r2, #0
    ff5c:	0a00000b 	beq	ff90 <divide_end>
    ff60:	e3a00000 	mov	r0, #0
    ff64:	e3a03001 	mov	r3, #1

0000ff68 <uloop>:
    ff68:	e1520001 	cmp	r2, r1
    ff6c:	91a02082 	lslls	r2, r2, #1
    ff70:	91a03083 	lslls	r3, r3, #1
    ff74:	9afffffb 	bls	ff68 <uloop>

0000ff78 <next>:
    ff78:	e1510002 	cmp	r1, r2
    ff7c:	20411002 	subcs	r1, r1, r2
    ff80:	20800003 	addcs	r0, r0, r3
    ff84:	e1b030a3 	lsrs	r3, r3, #1
    ff88:	31a020a2 	lsrcc	r2, r2, #1
    ff8c:	3afffff9 	bcc	ff78 <next>

0000ff90 <divide_end>:
    ff90:	e12fff1e 	bx	lr
    ff94:	00009ad0 	.word	0x00009ad0
    ff98:	00009c81 	.word	0x00009c81
    ff9c:	00009c10 	.word	0x00009c10
    ffa0:	00009c44 	.word	0x00009c44
    ffa4:	00009c80 	.word	0x00009c80
    ffa8:	00009c30 	.word	0x00009c30
    ffac:	00009c3c 	.word	0x00009c3c
    ffb0:	00009c40 	.word	0x00009c40

0000ffb4 <Clear>:
    ffb4:	e92d07ff 	push	{r0, r1, r2, r3, r4, r5, r6, r7, r8, r9, sl}
    ffb8:	e59f304c 	ldr	r3, [pc, #76]	; 1000c <clear+0x3c>
    ffbc:	e3a00000 	mov	r0, #0
    ffc0:	e0810502 	add	r0, r1, r2, lsl #10
    ffc4:	e1a00080 	lsl	r0, r0, #1
    ffc8:	e3a05000 	mov	r5, #0
    ffcc:	e3a06000 	mov	r6, #0

0000ffd0 <clear>:
    ffd0:	e18430b0 	strh	r3, [r4, r0]
    ffd4:	e2800001 	add	r0, r0, #1
    ffd8:	e2855001 	add	r5, r5, #1
    ffdc:	e3550040 	cmp	r5, #64	; 0x40
    ffe0:	1afffffa 	bne	ffd0 <clear>
    ffe4:	e2822001 	add	r2, r2, #1
    ffe8:	e3a00000 	mov	r0, #0
    ffec:	e0810502 	add	r0, r1, r2, lsl #10
    fff0:	e1a00080 	lsl	r0, r0, #1
    fff4:	e2866001 	add	r6, r6, #1
    fff8:	e3a05000 	mov	r5, #0
    fffc:	e3560020 	cmp	r6, #32
   10000:	1afffff2 	bne	ffd0 <clear>
   10004:	e8bd07ff 	pop	{r0, r1, r2, r3, r4, r5, r6, r7, r8, r9, sl}
   10008:	e12fff1e 	bx	lr
   1000c:	0000ffff 	.word	0x0000ffff

00010010 <DrawPixel>:
   10010:	e52d4004 	push	{r4}		; (str r4, [sp, #-4]!)
   10014:	e59f30a0 	ldr	r3, [pc, #160]	; 100bc <rightmail$+0x24>
   10018:	e5934004 	ldr	r4, [r3, #4]
   1001c:	e2444001 	sub	r4, r4, #1
   10020:	e1510004 	cmp	r1, r4
   10024:	81a0f00e 	movhi	pc, lr
   10028:	e5934000 	ldr	r4, [r3]
   1002c:	e2444001 	sub	r4, r4, #1
   10030:	e1500004 	cmp	r0, r4
   10034:	81a0f00e 	movhi	pc, lr
   10038:	e59f3080 	ldr	r3, [pc, #128]	; 100c0 <rightmail$+0x28>
   1003c:	e5933000 	ldr	r3, [r3]
   10040:	e2844001 	add	r4, r4, #1
   10044:	e0200491 	mla	r0, r1, r4, r0
   10048:	e0833080 	add	r3, r3, r0, lsl #1
   1004c:	e1c320b0 	strh	r2, [r3]
   10050:	e49d4004 	pop	{r4}		; (ldr r4, [sp], #4)
   10054:	e12fff1e 	bx	lr

00010058 <MailboxWrite>:
   10058:	e310000f 	tst	r0, #15
   1005c:	11a0f00e 	movne	pc, lr
   10060:	e351000f 	cmp	r1, #15
   10064:	81a0f00e 	movhi	pc, lr
   10068:	e1a02000 	mov	r2, r0
   1006c:	e59f0050 	ldr	r0, [pc, #80]	; 100c4 <rightmail$+0x2c>

00010070 <wait1$>:
   10070:	e5903018 	ldr	r3, [r0, #24]
   10074:	e3130102 	tst	r3, #-2147483648	; 0x80000000
   10078:	1afffffc 	bne	10070 <wait1$>
   1007c:	e0822001 	add	r2, r2, r1
   10080:	e5802020 	str	r2, [r0, #32]
   10084:	e12fff1e 	bx	lr

00010088 <MailboxRead>:
   10088:	e350000f 	cmp	r0, #15
   1008c:	81a0f00e 	movhi	pc, lr
   10090:	e1a01000 	mov	r1, r0
   10094:	e59f0028 	ldr	r0, [pc, #40]	; 100c4 <rightmail$+0x2c>

00010098 <rightmail$>:
   10098:	e5902018 	ldr	r2, [r0, #24]
   1009c:	e3120301 	tst	r2, #67108864	; 0x4000000
   100a0:	1afffffc 	bne	10098 <rightmail$>
   100a4:	e5902000 	ldr	r2, [r0]
   100a8:	e202300f 	and	r3, r2, #15
   100ac:	e1330001 	teq	r3, r1
   100b0:	1afffff8 	bne	10098 <rightmail$>
   100b4:	e3c2000f 	bic	r0, r2, #15
   100b8:	e12fff1e 	bx	lr
   100bc:	00009900 	.word	0x00009900
   100c0:	00009c38 	.word	0x00009c38
   100c4:	2000b880 	.word	0x2000b880

000100c8 <Drawdoor16bpp>:
   100c8:	e92d07ff 	push	{r0, r1, r2, r3, r4, r5, r6, r7, r8, r9, sl}
   100cc:	e3a00000 	mov	r0, #0
   100d0:	e0810502 	add	r0, r1, r2, lsl #10
   100d4:	e1a00080 	lsl	r0, r0, #1
   100d8:	e3a05000 	mov	r5, #0
   100dc:	e59f33ec 	ldr	r3, [pc, #1004]	; 104d0 <doorline18part7+0x3c>

000100e0 <doorline1part1>:
   100e0:	e18430b0 	strh	r3, [r4, r0]
   100e4:	e2800001 	add	r0, r0, #1
   100e8:	e2855001 	add	r5, r5, #1
   100ec:	e3550008 	cmp	r5, #8
   100f0:	1afffffa 	bne	100e0 <doorline1part1>
   100f4:	e3a05000 	mov	r5, #0
   100f8:	e3a0301f 	mov	r3, #31

000100fc <doorline1part2>:
   100fc:	e18430b0 	strh	r3, [r4, r0]
   10100:	e2800001 	add	r0, r0, #1
   10104:	e2855001 	add	r5, r5, #1
   10108:	e355002e 	cmp	r5, #46	; 0x2e
   1010c:	1afffffa 	bne	100fc <doorline1part2>
   10110:	e3a05000 	mov	r5, #0
   10114:	e59f33b4 	ldr	r3, [pc, #948]	; 104d0 <doorline18part7+0x3c>

00010118 <doorline1part3>:
   10118:	e18430b0 	strh	r3, [r4, r0]
   1011c:	e2800001 	add	r0, r0, #1
   10120:	e2855001 	add	r5, r5, #1
   10124:	e355000a 	cmp	r5, #10
   10128:	1afffffa 	bne	10118 <doorline1part3>
   1012c:	e2822001 	add	r2, r2, #1
   10130:	e3a00000 	mov	r0, #0
   10134:	e0810502 	add	r0, r1, r2, lsl #10
   10138:	e1a00080 	lsl	r0, r0, #1
   1013c:	e3a05000 	mov	r5, #0
   10140:	e3a06000 	mov	r6, #0

00010144 <doorline2part1>:
   10144:	e18430b0 	strh	r3, [r4, r0]
   10148:	e2800001 	add	r0, r0, #1
   1014c:	e2855001 	add	r5, r5, #1
   10150:	e3550008 	cmp	r5, #8
   10154:	1afffffa 	bne	10144 <doorline2part1>
   10158:	e3a05000 	mov	r5, #0
   1015c:	e3a0301f 	mov	r3, #31

00010160 <doorline2part2>:
   10160:	e18430b0 	strh	r3, [r4, r0]
   10164:	e2800001 	add	r0, r0, #1
   10168:	e2855001 	add	r5, r5, #1
   1016c:	e3550004 	cmp	r5, #4
   10170:	1afffffa 	bne	10160 <doorline2part2>
   10174:	e3a05000 	mov	r5, #0
   10178:	e59f3354 	ldr	r3, [pc, #852]	; 104d4 <doorline18part7+0x40>

0001017c <doorline2part3>:
   1017c:	e18430b0 	strh	r3, [r4, r0]
   10180:	e2800001 	add	r0, r0, #1
   10184:	e2855001 	add	r5, r5, #1
   10188:	e355000e 	cmp	r5, #14
   1018c:	1afffffa 	bne	1017c <doorline2part3>
   10190:	e3a05000 	mov	r5, #0
   10194:	e3a0301f 	mov	r3, #31

00010198 <doorline2part4>:
   10198:	e18430b0 	strh	r3, [r4, r0]
   1019c:	e2800001 	add	r0, r0, #1
   101a0:	e2855001 	add	r5, r5, #1
   101a4:	e355000a 	cmp	r5, #10
   101a8:	1afffffa 	bne	10198 <doorline2part4>
   101ac:	e3a05000 	mov	r5, #0
   101b0:	e59f331c 	ldr	r3, [pc, #796]	; 104d4 <doorline18part7+0x40>

000101b4 <doorline2part5>:
   101b4:	e18430b0 	strh	r3, [r4, r0]
   101b8:	e2800001 	add	r0, r0, #1
   101bc:	e2855001 	add	r5, r5, #1
   101c0:	e355000e 	cmp	r5, #14
   101c4:	1afffffa 	bne	101b4 <doorline2part5>
   101c8:	e3a05000 	mov	r5, #0
   101cc:	e3a0301f 	mov	r3, #31

000101d0 <doorline2part6>:
   101d0:	e18430b0 	strh	r3, [r4, r0]
   101d4:	e2800001 	add	r0, r0, #1
   101d8:	e2855001 	add	r5, r5, #1
   101dc:	e3550004 	cmp	r5, #4
   101e0:	1afffffa 	bne	101d0 <doorline2part6>
   101e4:	e3a05000 	mov	r5, #0
   101e8:	e59f32e0 	ldr	r3, [pc, #736]	; 104d0 <doorline18part7+0x3c>

000101ec <doorline2part7>:
   101ec:	e18430b0 	strh	r3, [r4, r0]
   101f0:	e2800001 	add	r0, r0, #1
   101f4:	e2855001 	add	r5, r5, #1
   101f8:	e355000a 	cmp	r5, #10
   101fc:	1afffffa 	bne	101ec <doorline2part7>
   10200:	e3a05000 	mov	r5, #0
   10204:	e3a00000 	mov	r0, #0
   10208:	e2822001 	add	r2, r2, #1
   1020c:	e0810502 	add	r0, r1, r2, lsl #10
   10210:	e1a00080 	lsl	r0, r0, #1
   10214:	e2866001 	add	r6, r6, #1
   10218:	e356000e 	cmp	r6, #14
   1021c:	1affffc8 	bne	10144 <doorline2part1>
   10220:	e3a05000 	mov	r5, #0
   10224:	e3a06000 	mov	r6, #0
   10228:	e3a00000 	mov	r0, #0
   1022c:	e0810502 	add	r0, r1, r2, lsl #10
   10230:	e1a00080 	lsl	r0, r0, #1

00010234 <doorline13part1>:
   10234:	e18430b0 	strh	r3, [r4, r0]
   10238:	e2800001 	add	r0, r0, #1
   1023c:	e2855001 	add	r5, r5, #1
   10240:	e3550008 	cmp	r5, #8
   10244:	1afffffa 	bne	10234 <doorline13part1>
   10248:	e3a05000 	mov	r5, #0
   1024c:	e3a0301f 	mov	r3, #31

00010250 <doorline13part2>:
   10250:	e18430b0 	strh	r3, [r4, r0]
   10254:	e2800001 	add	r0, r0, #1
   10258:	e2855001 	add	r5, r5, #1
   1025c:	e355002e 	cmp	r5, #46	; 0x2e
   10260:	1afffffa 	bne	10250 <doorline13part2>
   10264:	e3a05000 	mov	r5, #0
   10268:	e59f3260 	ldr	r3, [pc, #608]	; 104d0 <doorline18part7+0x3c>

0001026c <doorline13part3>:
   1026c:	e18430b0 	strh	r3, [r4, r0]
   10270:	e2800001 	add	r0, r0, #1
   10274:	e2855001 	add	r5, r5, #1
   10278:	e355000a 	cmp	r5, #10
   1027c:	1afffffa 	bne	1026c <doorline13part3>
   10280:	e3a05000 	mov	r5, #0
   10284:	e3a00000 	mov	r0, #0
   10288:	e2822001 	add	r2, r2, #1
   1028c:	e0810502 	add	r0, r1, r2, lsl #10
   10290:	e1a00080 	lsl	r0, r0, #1
   10294:	e2866001 	add	r6, r6, #1
   10298:	e3560002 	cmp	r6, #2
   1029c:	1affffe4 	bne	10234 <doorline13part1>
   102a0:	e3a05000 	mov	r5, #0
   102a4:	e3a06000 	mov	r6, #0
   102a8:	e3a00000 	mov	r0, #0
   102ac:	e0810502 	add	r0, r1, r2, lsl #10
   102b0:	e1a00080 	lsl	r0, r0, #1

000102b4 <doorline15part1>:
   102b4:	e18430b0 	strh	r3, [r4, r0]
   102b8:	e2800001 	add	r0, r0, #1
   102bc:	e2855001 	add	r5, r5, #1
   102c0:	e3550008 	cmp	r5, #8
   102c4:	1afffffa 	bne	102b4 <doorline15part1>
   102c8:	e3a05000 	mov	r5, #0
   102cc:	e3a0301f 	mov	r3, #31

000102d0 <doorline15part2>:
   102d0:	e18430b0 	strh	r3, [r4, r0]
   102d4:	e2800001 	add	r0, r0, #1
   102d8:	e2855001 	add	r5, r5, #1
   102dc:	e3550028 	cmp	r5, #40	; 0x28
   102e0:	1afffffa 	bne	102d0 <doorline15part2>
   102e4:	e3a05000 	mov	r5, #0
   102e8:	e59f31e8 	ldr	r3, [pc, #488]	; 104d8 <doorline18part7+0x44>

000102ec <doorline15part3>:
   102ec:	e18430b0 	strh	r3, [r4, r0]
   102f0:	e2800001 	add	r0, r0, #1
   102f4:	e2855001 	add	r5, r5, #1
   102f8:	e3550004 	cmp	r5, #4
   102fc:	1afffffa 	bne	102ec <doorline15part3>
   10300:	e3a05000 	mov	r5, #0
   10304:	e3a0301f 	mov	r3, #31

00010308 <doorline15part4>:
   10308:	e18430b0 	strh	r3, [r4, r0]
   1030c:	e2800001 	add	r0, r0, #1
   10310:	e2855001 	add	r5, r5, #1
   10314:	e3550002 	cmp	r5, #2
   10318:	1afffffa 	bne	10308 <doorline15part4>
   1031c:	e3a05000 	mov	r5, #0
   10320:	e59f31a8 	ldr	r3, [pc, #424]	; 104d0 <doorline18part7+0x3c>

00010324 <doorline15part5>:
   10324:	e18430b0 	strh	r3, [r4, r0]
   10328:	e2800001 	add	r0, r0, #1
   1032c:	e2855001 	add	r5, r5, #1
   10330:	e355000a 	cmp	r5, #10
   10334:	1afffffa 	bne	10324 <doorline15part5>
   10338:	e3a05000 	mov	r5, #0
   1033c:	e3a00000 	mov	r0, #0
   10340:	e2822001 	add	r2, r2, #1
   10344:	e0810502 	add	r0, r1, r2, lsl #10
   10348:	e1a00080 	lsl	r0, r0, #1
   1034c:	e2866001 	add	r6, r6, #1
   10350:	e3560002 	cmp	r6, #2
   10354:	1affffd6 	bne	102b4 <doorline15part1>
   10358:	e3a05000 	mov	r5, #0
   1035c:	e3a06000 	mov	r6, #0
   10360:	e3a00000 	mov	r0, #0
   10364:	e0810502 	add	r0, r1, r2, lsl #10
   10368:	e1a00080 	lsl	r0, r0, #1

0001036c <doorline17part1>:
   1036c:	e18430b0 	strh	r3, [r4, r0]
   10370:	e2800001 	add	r0, r0, #1
   10374:	e2855001 	add	r5, r5, #1
   10378:	e3550008 	cmp	r5, #8
   1037c:	1afffffa 	bne	1036c <doorline17part1>
   10380:	e3a05005 	mov	r5, #5
   10384:	e3a0301f 	mov	r3, #31

00010388 <doorline17part2>:
   10388:	e18430b0 	strh	r3, [r4, r0]
   1038c:	e2800001 	add	r0, r0, #1
   10390:	e2855001 	add	r5, r5, #1
   10394:	e3550034 	cmp	r5, #52	; 0x34
   10398:	1afffffa 	bne	10388 <doorline17part2>
   1039c:	e3a05000 	mov	r5, #0
   103a0:	e59f3128 	ldr	r3, [pc, #296]	; 104d0 <doorline18part7+0x3c>

000103a4 <doorline17part3>:
   103a4:	e18430b0 	strh	r3, [r4, r0]
   103a8:	e2800001 	add	r0, r0, #1
   103ac:	e2855001 	add	r5, r5, #1
   103b0:	e3550008 	cmp	r5, #8
   103b4:	1afffffa 	bne	103a4 <doorline17part3>
   103b8:	e3a05000 	mov	r5, #0
   103bc:	e3a00000 	mov	r0, #0
   103c0:	e2822001 	add	r2, r2, #1
   103c4:	e0810502 	add	r0, r1, r2, lsl #10
   103c8:	e1a00080 	lsl	r0, r0, #1
   103cc:	e2866001 	add	r6, r6, #1
   103d0:	e3560002 	cmp	r6, #2
   103d4:	1affffe4 	bne	1036c <doorline17part1>
   103d8:	e3a00000 	mov	r0, #0
   103dc:	e0810502 	add	r0, r1, r2, lsl #10
   103e0:	e1a00080 	lsl	r0, r0, #1
   103e4:	e3a05000 	mov	r5, #0
   103e8:	e3a06000 	mov	r6, #0

000103ec <doorline18part1>:
   103ec:	e18430b0 	strh	r3, [r4, r0]
   103f0:	e2800001 	add	r0, r0, #1
   103f4:	e2855001 	add	r5, r5, #1
   103f8:	e3550008 	cmp	r5, #8
   103fc:	1afffffa 	bne	103ec <doorline18part1>
   10400:	e3a05000 	mov	r5, #0
   10404:	e3a0301f 	mov	r3, #31

00010408 <doorline18part2>:
   10408:	e18430b0 	strh	r3, [r4, r0]
   1040c:	e2800001 	add	r0, r0, #1
   10410:	e2855001 	add	r5, r5, #1
   10414:	e3550004 	cmp	r5, #4
   10418:	1afffffa 	bne	10408 <doorline18part2>
   1041c:	e3a05000 	mov	r5, #0
   10420:	e59f30ac 	ldr	r3, [pc, #172]	; 104d4 <doorline18part7+0x40>

00010424 <doorline18part3>:
   10424:	e18430b0 	strh	r3, [r4, r0]
   10428:	e2800001 	add	r0, r0, #1
   1042c:	e2855001 	add	r5, r5, #1
   10430:	e355000e 	cmp	r5, #14
   10434:	1afffffa 	bne	10424 <doorline18part3>
   10438:	e3a05000 	mov	r5, #0
   1043c:	e3a0301f 	mov	r3, #31

00010440 <doorline18part4>:
   10440:	e18430b0 	strh	r3, [r4, r0]
   10444:	e2800001 	add	r0, r0, #1
   10448:	e2855001 	add	r5, r5, #1
   1044c:	e355000a 	cmp	r5, #10
   10450:	1afffffa 	bne	10440 <doorline18part4>
   10454:	e3a05000 	mov	r5, #0
   10458:	e59f3074 	ldr	r3, [pc, #116]	; 104d4 <doorline18part7+0x40>

0001045c <doorline18part5>:
   1045c:	e18430b0 	strh	r3, [r4, r0]
   10460:	e2800001 	add	r0, r0, #1
   10464:	e2855001 	add	r5, r5, #1
   10468:	e355000e 	cmp	r5, #14
   1046c:	1afffffa 	bne	1045c <doorline18part5>
   10470:	e3a05000 	mov	r5, #0
   10474:	e3a0301f 	mov	r3, #31

00010478 <doorline18part6>:
   10478:	e18430b0 	strh	r3, [r4, r0]
   1047c:	e2800001 	add	r0, r0, #1
   10480:	e2855001 	add	r5, r5, #1
   10484:	e3550004 	cmp	r5, #4
   10488:	1afffffa 	bne	10478 <doorline18part6>
   1048c:	e3a05000 	mov	r5, #0
   10490:	e59f3038 	ldr	r3, [pc, #56]	; 104d0 <doorline18part7+0x3c>

00010494 <doorline18part7>:
   10494:	e18430b0 	strh	r3, [r4, r0]
   10498:	e2800001 	add	r0, r0, #1
   1049c:	e2855001 	add	r5, r5, #1
   104a0:	e355000a 	cmp	r5, #10
   104a4:	1afffffa 	bne	10494 <doorline18part7>
   104a8:	e3a05000 	mov	r5, #0
   104ac:	e3a00000 	mov	r0, #0
   104b0:	e2822001 	add	r2, r2, #1
   104b4:	e0810502 	add	r0, r1, r2, lsl #10
   104b8:	e1a00080 	lsl	r0, r0, #1
   104bc:	e2866001 	add	r6, r6, #1
   104c0:	e356000c 	cmp	r6, #12
   104c4:	1affffc8 	bne	103ec <doorline18part1>
   104c8:	e8bd07ff 	pop	{r0, r1, r2, r3, r4, r5, r6, r7, r8, r9, sl}
   104cc:	e12fff1e 	bx	lr
   104d0:	00007bef 	.word	0x00007bef
   104d4:	0000bdf7 	.word	0x0000bdf7
   104d8:	0000ffe0 	.word	0x0000ffe0

000104dc <Drawfloor16bpp>:
   104dc:	e92d07ff 	push	{r0, r1, r2, r3, r4, r5, r6, r7, r8, r9, sl}
   104e0:	e59f30c0 	ldr	r3, [pc, #192]	; 105a8 <floorline4+0x28>
   104e4:	e3a00000 	mov	r0, #0
   104e8:	e0810502 	add	r0, r1, r2, lsl #10
   104ec:	e1a00080 	lsl	r0, r0, #1
   104f0:	e3a05001 	mov	r5, #1

000104f4 <floorline1>:
   104f4:	e18430b0 	strh	r3, [r4, r0]
   104f8:	e2800001 	add	r0, r0, #1
   104fc:	e2855001 	add	r5, r5, #1
   10500:	e3550040 	cmp	r5, #64	; 0x40
   10504:	1afffffa 	bne	104f4 <floorline1>
   10508:	e2822020 	add	r2, r2, #32
   1050c:	e3a00000 	mov	r0, #0
   10510:	e0810502 	add	r0, r1, r2, lsl #10
   10514:	e1a00080 	lsl	r0, r0, #1
   10518:	e3a05000 	mov	r5, #0

0001051c <floorline2>:
   1051c:	e18430b0 	strh	r3, [r4, r0]
   10520:	e2800001 	add	r0, r0, #1
   10524:	e2855001 	add	r5, r5, #1
   10528:	e3550040 	cmp	r5, #64	; 0x40
   1052c:	1afffffa 	bne	1051c <floorline2>
   10530:	e2422020 	sub	r2, r2, #32
   10534:	e3a00000 	mov	r0, #0
   10538:	e0810502 	add	r0, r1, r2, lsl #10
   1053c:	e1a00080 	lsl	r0, r0, #1
   10540:	e3a05000 	mov	r5, #0
   10544:	e52d1004 	push	{r1}		; (str r1, [sp, #-4]!)

00010548 <floorline3>:
   10548:	e18430b0 	strh	r3, [r4, r0]
   1054c:	e2811b01 	add	r1, r1, #1024	; 0x400
   10550:	e3a00000 	mov	r0, #0
   10554:	e0810502 	add	r0, r1, r2, lsl #10
   10558:	e1a00080 	lsl	r0, r0, #1
   1055c:	e2855001 	add	r5, r5, #1
   10560:	e3550020 	cmp	r5, #32
   10564:	1afffff7 	bne	10548 <floorline3>
   10568:	e49d1004 	pop	{r1}		; (ldr r1, [sp], #4)
   1056c:	e2811020 	add	r1, r1, #32
   10570:	e3a00000 	mov	r0, #0
   10574:	e0810502 	add	r0, r1, r2, lsl #10
   10578:	e1a00080 	lsl	r0, r0, #1
   1057c:	e3a05000 	mov	r5, #0

00010580 <floorline4>:
   10580:	e18430b0 	strh	r3, [r4, r0]
   10584:	e2811b01 	add	r1, r1, #1024	; 0x400
   10588:	e3a00000 	mov	r0, #0
   1058c:	e0810502 	add	r0, r1, r2, lsl #10
   10590:	e1a00080 	lsl	r0, r0, #1
   10594:	e2855001 	add	r5, r5, #1
   10598:	e3550020 	cmp	r5, #32
   1059c:	1afffff7 	bne	10580 <floorline4>
   105a0:	e8bd07ff 	pop	{r0, r1, r2, r3, r4, r5, r6, r7, r8, r9, sl}
   105a4:	e12fff1e 	bx	lr
   105a8:	00007bef 	.word	0x00007bef

000105ac <DECIDECHAR2>:
   105ac:	e92d4070 	push	{r4, r5, r6, lr}
   105b0:	e52de004 	push	{lr}		; (str lr, [sp, #-4]!)
   105b4:	e1a01000 	mov	r1, r0
   105b8:	e3a02064 	mov	r2, #100	; 0x64
   105bc:	ebfffe65 	bl	ff58 <udivision>
   105c0:	e1a04000 	mov	r4, r0
   105c4:	e49de004 	pop	{lr}		; (ldr lr, [sp], #4)
   105c8:	e52de004 	push	{lr}		; (str lr, [sp, #-4]!)
   105cc:	e3a0200a 	mov	r2, #10
   105d0:	ebfffe60 	bl	ff58 <udivision>
   105d4:	e1a05000 	mov	r5, r0
   105d8:	e1a06001 	mov	r6, r1
   105dc:	e49de004 	pop	{lr}		; (ldr lr, [sp], #4)
   105e0:	eb000002 	bl	105f0 <DECIDE1ST>
   105e4:	eb000017 	bl	10648 <DECIDE2ND>
   105e8:	eb00002c 	bl	106a0 <DECIDE3RD>
   105ec:	e8bd8070 	pop	{r4, r5, r6, pc}

000105f0 <DECIDE1ST>:
   105f0:	e52de004 	push	{lr}		; (str lr, [sp, #-4]!)
   105f4:	e3560000 	cmp	r6, #0
   105f8:	0b000ac8 	bleq	13120 <DrawCharMNUM10>
   105fc:	e3560001 	cmp	r6, #1
   10600:	0b000adf 	bleq	13184 <DrawCharMNUM11>
   10604:	e3560002 	cmp	r6, #2
   10608:	0b000af6 	bleq	131e8 <DrawCharMNUM12>
   1060c:	e3560003 	cmp	r6, #3
   10610:	0b000b0d 	bleq	1324c <DrawCharMNUM13>
   10614:	e3560004 	cmp	r6, #4
   10618:	0b000b24 	bleq	132b0 <DrawCharMNUM14>
   1061c:	e3560005 	cmp	r6, #5
   10620:	0b000b3b 	bleq	13314 <DrawCharMNUM15>
   10624:	e3560006 	cmp	r6, #6
   10628:	0b000b52 	bleq	13378 <DrawCharMNUM16>
   1062c:	e3560007 	cmp	r6, #7
   10630:	0b000b69 	bleq	133dc <DrawCharMNUM17>
   10634:	e3560008 	cmp	r6, #8
   10638:	0b000b80 	bleq	13440 <DrawCharMNUM18>
   1063c:	e3560009 	cmp	r6, #9
   10640:	0b000b97 	bleq	134a4 <DrawCharMNUM19>
   10644:	e49df004 	pop	{pc}		; (ldr pc, [sp], #4)

00010648 <DECIDE2ND>:
   10648:	e52de004 	push	{lr}		; (str lr, [sp, #-4]!)
   1064c:	e3550000 	cmp	r5, #0
   10650:	0b000bac 	bleq	13508 <DrawCharMNUM20>
   10654:	e3550001 	cmp	r5, #1
   10658:	0b000bc3 	bleq	1356c <DrawCharMNUM21>
   1065c:	e3550002 	cmp	r5, #2
   10660:	0b000bda 	bleq	135d0 <DrawCharMNUM22>
   10664:	e3550003 	cmp	r5, #3
   10668:	0b000bf1 	bleq	13634 <DrawCharMNUM23>
   1066c:	e3550004 	cmp	r5, #4
   10670:	0b000c08 	bleq	13698 <DrawCharMNUM24>
   10674:	e3550005 	cmp	r5, #5
   10678:	0b000c1f 	bleq	136fc <DrawCharMNUM25>
   1067c:	e3550006 	cmp	r5, #6
   10680:	0b000c36 	bleq	13760 <DrawCharMNUM26>
   10684:	e3550007 	cmp	r5, #7
   10688:	0b000c4d 	bleq	137c4 <DrawCharMNUM27>
   1068c:	e3550008 	cmp	r5, #8
   10690:	0b000c64 	bleq	13828 <DrawCharMNUM28>
   10694:	e3550009 	cmp	r5, #9
   10698:	0b000c7b 	bleq	1388c <DrawCharMNUM29>
   1069c:	e49df004 	pop	{pc}		; (ldr pc, [sp], #4)

000106a0 <DECIDE3RD>:
   106a0:	e52de004 	push	{lr}		; (str lr, [sp, #-4]!)
   106a4:	e3540000 	cmp	r4, #0
   106a8:	0b000c90 	bleq	138f0 <DrawCharMNUM30>
   106ac:	e3540001 	cmp	r4, #1
   106b0:	0b000ca7 	bleq	13954 <DrawCharMNUM31>
   106b4:	e49df004 	pop	{pc}		; (ldr pc, [sp], #4)

000106b8 <Drawstart16bpp>:
   106b8:	e1a0b001 	mov	fp, r1
   106bc:	e92d07ff 	push	{r0, r1, r2, r3, r4, r5, r6, r7, r8, r9, sl}
   106c0:	e3a03e7e 	mov	r3, #2016	; 0x7e0
   106c4:	e1a0c002 	mov	ip, r2
   106c8:	e3a00000 	mov	r0, #0
   106cc:	e0810502 	add	r0, r1, r2, lsl #10
   106d0:	e1a00080 	lsl	r0, r0, #1
   106d4:	e3a05000 	mov	r5, #0
   106d8:	e3a06000 	mov	r6, #0

000106dc <startfill>:
   106dc:	e18430b0 	strh	r3, [r4, r0]
   106e0:	e2800001 	add	r0, r0, #1
   106e4:	e2855001 	add	r5, r5, #1
   106e8:	e3550040 	cmp	r5, #64	; 0x40
   106ec:	1afffffa 	bne	106dc <startfill>
   106f0:	e2811b01 	add	r1, r1, #1024	; 0x400
   106f4:	e3a00000 	mov	r0, #0
   106f8:	e0810502 	add	r0, r1, r2, lsl #10
   106fc:	e1a00080 	lsl	r0, r0, #1
   10700:	e2866001 	add	r6, r6, #1
   10704:	e3a05000 	mov	r5, #0
   10708:	e3560020 	cmp	r6, #32
   1070c:	1afffff2 	bne	106dc <startfill>
   10710:	e8bd07ff 	pop	{r0, r1, r2, r3, r4, r5, r6, r7, r8, r9, sl}
   10714:	e12fff1e 	bx	lr

00010718 <Drawexit16bpp>:
   10718:	e92d07ff 	push	{r0, r1, r2, r3, r4, r5, r6, r7, r8, r9, sl}
   1071c:	e3a00000 	mov	r0, #0
   10720:	e0810502 	add	r0, r1, r2, lsl #10
   10724:	e1a00080 	lsl	r0, r0, #1
   10728:	e3a05000 	mov	r5, #0
   1072c:	e59f33ec 	ldr	r3, [pc, #1004]	; 10b20 <exitline18part7+0x3c>

00010730 <exitline1part1>:
   10730:	e18430b0 	strh	r3, [r4, r0]
   10734:	e2800001 	add	r0, r0, #1
   10738:	e2855001 	add	r5, r5, #1
   1073c:	e3550008 	cmp	r5, #8
   10740:	1afffffa 	bne	10730 <exitline1part1>
   10744:	e3a05000 	mov	r5, #0
   10748:	e3a038ff 	mov	r3, #16711680	; 0xff0000

0001074c <exitline1part2>:
   1074c:	e18430b0 	strh	r3, [r4, r0]
   10750:	e2800001 	add	r0, r0, #1
   10754:	e2855001 	add	r5, r5, #1
   10758:	e355002e 	cmp	r5, #46	; 0x2e
   1075c:	1afffffa 	bne	1074c <exitline1part2>
   10760:	e3a05000 	mov	r5, #0
   10764:	e59f33b4 	ldr	r3, [pc, #948]	; 10b20 <exitline18part7+0x3c>

00010768 <exitline1part3>:
   10768:	e18430b0 	strh	r3, [r4, r0]
   1076c:	e2800001 	add	r0, r0, #1
   10770:	e2855001 	add	r5, r5, #1
   10774:	e355000a 	cmp	r5, #10
   10778:	1afffffa 	bne	10768 <exitline1part3>
   1077c:	e2822001 	add	r2, r2, #1
   10780:	e3a00000 	mov	r0, #0
   10784:	e0810502 	add	r0, r1, r2, lsl #10
   10788:	e1a00080 	lsl	r0, r0, #1
   1078c:	e3a05000 	mov	r5, #0
   10790:	e3a06000 	mov	r6, #0

00010794 <exitline2part1>:
   10794:	e18430b0 	strh	r3, [r4, r0]
   10798:	e2800001 	add	r0, r0, #1
   1079c:	e2855001 	add	r5, r5, #1
   107a0:	e3550008 	cmp	r5, #8
   107a4:	1afffffa 	bne	10794 <exitline2part1>
   107a8:	e3a05000 	mov	r5, #0
   107ac:	e3a038ff 	mov	r3, #16711680	; 0xff0000

000107b0 <exitline2part2>:
   107b0:	e18430b0 	strh	r3, [r4, r0]
   107b4:	e2800001 	add	r0, r0, #1
   107b8:	e2855001 	add	r5, r5, #1
   107bc:	e3550004 	cmp	r5, #4
   107c0:	1afffffa 	bne	107b0 <exitline2part2>
   107c4:	e3a05000 	mov	r5, #0
   107c8:	e59f3354 	ldr	r3, [pc, #852]	; 10b24 <exitline18part7+0x40>

000107cc <exitline2part3>:
   107cc:	e18430b0 	strh	r3, [r4, r0]
   107d0:	e2800001 	add	r0, r0, #1
   107d4:	e2855001 	add	r5, r5, #1
   107d8:	e355000e 	cmp	r5, #14
   107dc:	1afffffa 	bne	107cc <exitline2part3>
   107e0:	e3a05000 	mov	r5, #0
   107e4:	e3a038ff 	mov	r3, #16711680	; 0xff0000

000107e8 <exitline2part4>:
   107e8:	e18430b0 	strh	r3, [r4, r0]
   107ec:	e2800001 	add	r0, r0, #1
   107f0:	e2855001 	add	r5, r5, #1
   107f4:	e355000a 	cmp	r5, #10
   107f8:	1afffffa 	bne	107e8 <exitline2part4>
   107fc:	e3a05000 	mov	r5, #0
   10800:	e59f331c 	ldr	r3, [pc, #796]	; 10b24 <exitline18part7+0x40>

00010804 <exitline2part5>:
   10804:	e18430b0 	strh	r3, [r4, r0]
   10808:	e2800001 	add	r0, r0, #1
   1080c:	e2855001 	add	r5, r5, #1
   10810:	e355000e 	cmp	r5, #14
   10814:	1afffffa 	bne	10804 <exitline2part5>
   10818:	e3a05000 	mov	r5, #0
   1081c:	e3a038ff 	mov	r3, #16711680	; 0xff0000

00010820 <exitline2part6>:
   10820:	e18430b0 	strh	r3, [r4, r0]
   10824:	e2800001 	add	r0, r0, #1
   10828:	e2855001 	add	r5, r5, #1
   1082c:	e3550004 	cmp	r5, #4
   10830:	1afffffa 	bne	10820 <exitline2part6>
   10834:	e3a05000 	mov	r5, #0
   10838:	e59f32e0 	ldr	r3, [pc, #736]	; 10b20 <exitline18part7+0x3c>

0001083c <exitline2part7>:
   1083c:	e18430b0 	strh	r3, [r4, r0]
   10840:	e2800001 	add	r0, r0, #1
   10844:	e2855001 	add	r5, r5, #1
   10848:	e355000a 	cmp	r5, #10
   1084c:	1afffffa 	bne	1083c <exitline2part7>
   10850:	e3a05000 	mov	r5, #0
   10854:	e3a00000 	mov	r0, #0
   10858:	e2822001 	add	r2, r2, #1
   1085c:	e0810502 	add	r0, r1, r2, lsl #10
   10860:	e1a00080 	lsl	r0, r0, #1
   10864:	e2866001 	add	r6, r6, #1
   10868:	e356000e 	cmp	r6, #14
   1086c:	1affffc8 	bne	10794 <exitline2part1>
   10870:	e3a05000 	mov	r5, #0
   10874:	e3a06000 	mov	r6, #0
   10878:	e3a00000 	mov	r0, #0
   1087c:	e0810502 	add	r0, r1, r2, lsl #10
   10880:	e1a00080 	lsl	r0, r0, #1

00010884 <exitline13part1>:
   10884:	e18430b0 	strh	r3, [r4, r0]
   10888:	e2800001 	add	r0, r0, #1
   1088c:	e2855001 	add	r5, r5, #1
   10890:	e3550008 	cmp	r5, #8
   10894:	1afffffa 	bne	10884 <exitline13part1>
   10898:	e3a05000 	mov	r5, #0
   1089c:	e3a038ff 	mov	r3, #16711680	; 0xff0000

000108a0 <exitline13part2>:
   108a0:	e18430b0 	strh	r3, [r4, r0]
   108a4:	e2800001 	add	r0, r0, #1
   108a8:	e2855001 	add	r5, r5, #1
   108ac:	e355002e 	cmp	r5, #46	; 0x2e
   108b0:	1afffffa 	bne	108a0 <exitline13part2>
   108b4:	e3a05000 	mov	r5, #0
   108b8:	e59f3260 	ldr	r3, [pc, #608]	; 10b20 <exitline18part7+0x3c>

000108bc <exitline13part3>:
   108bc:	e18430b0 	strh	r3, [r4, r0]
   108c0:	e2800001 	add	r0, r0, #1
   108c4:	e2855001 	add	r5, r5, #1
   108c8:	e355000a 	cmp	r5, #10
   108cc:	1afffffa 	bne	108bc <exitline13part3>
   108d0:	e3a05000 	mov	r5, #0
   108d4:	e3a00000 	mov	r0, #0
   108d8:	e2822001 	add	r2, r2, #1
   108dc:	e0810502 	add	r0, r1, r2, lsl #10
   108e0:	e1a00080 	lsl	r0, r0, #1
   108e4:	e2866001 	add	r6, r6, #1
   108e8:	e3560002 	cmp	r6, #2
   108ec:	1affffe4 	bne	10884 <exitline13part1>
   108f0:	e3a05000 	mov	r5, #0
   108f4:	e3a06000 	mov	r6, #0
   108f8:	e3a00000 	mov	r0, #0
   108fc:	e0810502 	add	r0, r1, r2, lsl #10
   10900:	e1a00080 	lsl	r0, r0, #1

00010904 <exitline15part1>:
   10904:	e18430b0 	strh	r3, [r4, r0]
   10908:	e2800001 	add	r0, r0, #1
   1090c:	e2855001 	add	r5, r5, #1
   10910:	e3550008 	cmp	r5, #8
   10914:	1afffffa 	bne	10904 <exitline15part1>
   10918:	e3a05000 	mov	r5, #0
   1091c:	e3a038ff 	mov	r3, #16711680	; 0xff0000

00010920 <exitline15part2>:
   10920:	e18430b0 	strh	r3, [r4, r0]
   10924:	e2800001 	add	r0, r0, #1
   10928:	e2855001 	add	r5, r5, #1
   1092c:	e3550028 	cmp	r5, #40	; 0x28
   10930:	1afffffa 	bne	10920 <exitline15part2>
   10934:	e3a05000 	mov	r5, #0
   10938:	e59f31e8 	ldr	r3, [pc, #488]	; 10b28 <exitline18part7+0x44>

0001093c <exitline15part3>:
   1093c:	e18430b0 	strh	r3, [r4, r0]
   10940:	e2800001 	add	r0, r0, #1
   10944:	e2855001 	add	r5, r5, #1
   10948:	e3550004 	cmp	r5, #4
   1094c:	1afffffa 	bne	1093c <exitline15part3>
   10950:	e3a05000 	mov	r5, #0
   10954:	e3a038ff 	mov	r3, #16711680	; 0xff0000

00010958 <exitline15part4>:
   10958:	e18430b0 	strh	r3, [r4, r0]
   1095c:	e2800001 	add	r0, r0, #1
   10960:	e2855001 	add	r5, r5, #1
   10964:	e3550002 	cmp	r5, #2
   10968:	1afffffa 	bne	10958 <exitline15part4>
   1096c:	e3a05000 	mov	r5, #0
   10970:	e59f31a8 	ldr	r3, [pc, #424]	; 10b20 <exitline18part7+0x3c>

00010974 <exitline15part5>:
   10974:	e18430b0 	strh	r3, [r4, r0]
   10978:	e2800001 	add	r0, r0, #1
   1097c:	e2855001 	add	r5, r5, #1
   10980:	e355000a 	cmp	r5, #10
   10984:	1afffffa 	bne	10974 <exitline15part5>
   10988:	e3a05000 	mov	r5, #0
   1098c:	e3a00000 	mov	r0, #0
   10990:	e2822001 	add	r2, r2, #1
   10994:	e0810502 	add	r0, r1, r2, lsl #10
   10998:	e1a00080 	lsl	r0, r0, #1
   1099c:	e2866001 	add	r6, r6, #1
   109a0:	e3560002 	cmp	r6, #2
   109a4:	1affffd6 	bne	10904 <exitline15part1>
   109a8:	e3a05000 	mov	r5, #0
   109ac:	e3a06000 	mov	r6, #0
   109b0:	e3a00000 	mov	r0, #0
   109b4:	e0810502 	add	r0, r1, r2, lsl #10
   109b8:	e1a00080 	lsl	r0, r0, #1

000109bc <exitline17part1>:
   109bc:	e18430b0 	strh	r3, [r4, r0]
   109c0:	e2800001 	add	r0, r0, #1
   109c4:	e2855001 	add	r5, r5, #1
   109c8:	e3550008 	cmp	r5, #8
   109cc:	1afffffa 	bne	109bc <exitline17part1>
   109d0:	e3a05005 	mov	r5, #5
   109d4:	e3a038ff 	mov	r3, #16711680	; 0xff0000

000109d8 <exitline17part2>:
   109d8:	e18430b0 	strh	r3, [r4, r0]
   109dc:	e2800001 	add	r0, r0, #1
   109e0:	e2855001 	add	r5, r5, #1
   109e4:	e3550034 	cmp	r5, #52	; 0x34
   109e8:	1afffffa 	bne	109d8 <exitline17part2>
   109ec:	e3a05000 	mov	r5, #0
   109f0:	e59f3128 	ldr	r3, [pc, #296]	; 10b20 <exitline18part7+0x3c>

000109f4 <exitline17part3>:
   109f4:	e18430b0 	strh	r3, [r4, r0]
   109f8:	e2800001 	add	r0, r0, #1
   109fc:	e2855001 	add	r5, r5, #1
   10a00:	e3550008 	cmp	r5, #8
   10a04:	1afffffa 	bne	109f4 <exitline17part3>
   10a08:	e3a05000 	mov	r5, #0
   10a0c:	e3a00000 	mov	r0, #0
   10a10:	e2822001 	add	r2, r2, #1
   10a14:	e0810502 	add	r0, r1, r2, lsl #10
   10a18:	e1a00080 	lsl	r0, r0, #1
   10a1c:	e2866001 	add	r6, r6, #1
   10a20:	e3560002 	cmp	r6, #2
   10a24:	1affffe4 	bne	109bc <exitline17part1>
   10a28:	e3a00000 	mov	r0, #0
   10a2c:	e0810502 	add	r0, r1, r2, lsl #10
   10a30:	e1a00080 	lsl	r0, r0, #1
   10a34:	e3a05000 	mov	r5, #0
   10a38:	e3a06000 	mov	r6, #0

00010a3c <exitline18part1>:
   10a3c:	e18430b0 	strh	r3, [r4, r0]
   10a40:	e2800001 	add	r0, r0, #1
   10a44:	e2855001 	add	r5, r5, #1
   10a48:	e3550008 	cmp	r5, #8
   10a4c:	1afffffa 	bne	10a3c <exitline18part1>
   10a50:	e3a05000 	mov	r5, #0
   10a54:	e3a038ff 	mov	r3, #16711680	; 0xff0000

00010a58 <exitline18part2>:
   10a58:	e18430b0 	strh	r3, [r4, r0]
   10a5c:	e2800001 	add	r0, r0, #1
   10a60:	e2855001 	add	r5, r5, #1
   10a64:	e3550004 	cmp	r5, #4
   10a68:	1afffffa 	bne	10a58 <exitline18part2>
   10a6c:	e3a05000 	mov	r5, #0
   10a70:	e59f30ac 	ldr	r3, [pc, #172]	; 10b24 <exitline18part7+0x40>

00010a74 <exitline18part3>:
   10a74:	e18430b0 	strh	r3, [r4, r0]
   10a78:	e2800001 	add	r0, r0, #1
   10a7c:	e2855001 	add	r5, r5, #1
   10a80:	e355000e 	cmp	r5, #14
   10a84:	1afffffa 	bne	10a74 <exitline18part3>
   10a88:	e3a05000 	mov	r5, #0
   10a8c:	e3a038ff 	mov	r3, #16711680	; 0xff0000

00010a90 <exitline18part4>:
   10a90:	e18430b0 	strh	r3, [r4, r0]
   10a94:	e2800001 	add	r0, r0, #1
   10a98:	e2855001 	add	r5, r5, #1
   10a9c:	e355000a 	cmp	r5, #10
   10aa0:	1afffffa 	bne	10a90 <exitline18part4>
   10aa4:	e3a05000 	mov	r5, #0
   10aa8:	e59f3074 	ldr	r3, [pc, #116]	; 10b24 <exitline18part7+0x40>

00010aac <exitline18part5>:
   10aac:	e18430b0 	strh	r3, [r4, r0]
   10ab0:	e2800001 	add	r0, r0, #1
   10ab4:	e2855001 	add	r5, r5, #1
   10ab8:	e355000e 	cmp	r5, #14
   10abc:	1afffffa 	bne	10aac <exitline18part5>
   10ac0:	e3a05000 	mov	r5, #0
   10ac4:	e3a038ff 	mov	r3, #16711680	; 0xff0000

00010ac8 <exitline18part6>:
   10ac8:	e18430b0 	strh	r3, [r4, r0]
   10acc:	e2800001 	add	r0, r0, #1
   10ad0:	e2855001 	add	r5, r5, #1
   10ad4:	e3550004 	cmp	r5, #4
   10ad8:	1afffffa 	bne	10ac8 <exitline18part6>
   10adc:	e3a05000 	mov	r5, #0
   10ae0:	e59f3038 	ldr	r3, [pc, #56]	; 10b20 <exitline18part7+0x3c>

00010ae4 <exitline18part7>:
   10ae4:	e18430b0 	strh	r3, [r4, r0]
   10ae8:	e2800001 	add	r0, r0, #1
   10aec:	e2855001 	add	r5, r5, #1
   10af0:	e355000a 	cmp	r5, #10
   10af4:	1afffffa 	bne	10ae4 <exitline18part7>
   10af8:	e3a05000 	mov	r5, #0
   10afc:	e3a00000 	mov	r0, #0
   10b00:	e2822001 	add	r2, r2, #1
   10b04:	e0810502 	add	r0, r1, r2, lsl #10
   10b08:	e1a00080 	lsl	r0, r0, #1
   10b0c:	e2866001 	add	r6, r6, #1
   10b10:	e356000b 	cmp	r6, #11
   10b14:	1affffc8 	bne	10a3c <exitline18part1>
   10b18:	e8bd07ff 	pop	{r0, r1, r2, r3, r4, r5, r6, r7, r8, r9, sl}
   10b1c:	e12fff1e 	bx	lr
   10b20:	00007bef 	.word	0x00007bef
   10b24:	0000bdf7 	.word	0x0000bdf7
   10b28:	0000ffe0 	.word	0x0000ffe0

00010b2c <Drawkey16bpp>:
   10b2c:	e92d07ff 	push	{r0, r1, r2, r3, r4, r5, r6, r7, r8, r9, sl}
   10b30:	e59f348c 	ldr	r3, [pc, #1164]	; 10fc4 <keyline28part2+0x3c>
   10b34:	e3a00000 	mov	r0, #0
   10b38:	e0810502 	add	r0, r1, r2, lsl #10
   10b3c:	e1a00080 	lsl	r0, r0, #1
   10b40:	e3a05000 	mov	r5, #0

00010b44 <keyborder1>:
   10b44:	e18430b0 	strh	r3, [r4, r0]
   10b48:	e2800001 	add	r0, r0, #1
   10b4c:	e2855001 	add	r5, r5, #1
   10b50:	e3550040 	cmp	r5, #64	; 0x40
   10b54:	1afffffa 	bne	10b44 <keyborder1>
   10b58:	e2822020 	add	r2, r2, #32
   10b5c:	e3a00000 	mov	r0, #0
   10b60:	e0810502 	add	r0, r1, r2, lsl #10
   10b64:	e1a00080 	lsl	r0, r0, #1
   10b68:	e3a05000 	mov	r5, #0

00010b6c <keyborder2>:
   10b6c:	e18430b0 	strh	r3, [r4, r0]
   10b70:	e2800001 	add	r0, r0, #1
   10b74:	e2855001 	add	r5, r5, #1
   10b78:	e3550040 	cmp	r5, #64	; 0x40
   10b7c:	1afffffa 	bne	10b6c <keyborder2>
   10b80:	e2422020 	sub	r2, r2, #32
   10b84:	e3a00000 	mov	r0, #0
   10b88:	e0810502 	add	r0, r1, r2, lsl #10
   10b8c:	e1a00080 	lsl	r0, r0, #1
   10b90:	e3a05000 	mov	r5, #0
   10b94:	e52d1004 	push	{r1}		; (str r1, [sp, #-4]!)

00010b98 <keyborder3>:
   10b98:	e18430b0 	strh	r3, [r4, r0]
   10b9c:	e2811b01 	add	r1, r1, #1024	; 0x400
   10ba0:	e3a00000 	mov	r0, #0
   10ba4:	e0810502 	add	r0, r1, r2, lsl #10
   10ba8:	e1a00080 	lsl	r0, r0, #1
   10bac:	e2855001 	add	r5, r5, #1
   10bb0:	e3550020 	cmp	r5, #32
   10bb4:	1afffff7 	bne	10b98 <keyborder3>
   10bb8:	e49d1004 	pop	{r1}		; (ldr r1, [sp], #4)
   10bbc:	e2811020 	add	r1, r1, #32
   10bc0:	e0810502 	add	r0, r1, r2, lsl #10
   10bc4:	e1a00080 	lsl	r0, r0, #1
   10bc8:	e3a05000 	mov	r5, #0
   10bcc:	e52d1004 	push	{r1}		; (str r1, [sp, #-4]!)

00010bd0 <keyborder4>:
   10bd0:	e18430b0 	strh	r3, [r4, r0]
   10bd4:	e2811b01 	add	r1, r1, #1024	; 0x400
   10bd8:	e0810502 	add	r0, r1, r2, lsl #10
   10bdc:	e1a00080 	lsl	r0, r0, #1
   10be0:	e2855001 	add	r5, r5, #1
   10be4:	e3550020 	cmp	r5, #32
   10be8:	1afffff8 	bne	10bd0 <keyborder4>
   10bec:	e49d1004 	pop	{r1}		; (ldr r1, [sp], #4)
   10bf0:	e2411020 	sub	r1, r1, #32
   10bf4:	e281100b 	add	r1, r1, #11
   10bf8:	e2822002 	add	r2, r2, #2
   10bfc:	e3a00000 	mov	r0, #0
   10c00:	e0810502 	add	r0, r1, r2, lsl #10
   10c04:	e1a00080 	lsl	r0, r0, #1
   10c08:	e3a05000 	mov	r5, #0
   10c0c:	e59f33b4 	ldr	r3, [pc, #948]	; 10fc8 <keyline28part2+0x40>

00010c10 <keyline1>:
   10c10:	e18430b0 	strh	r3, [r4, r0]
   10c14:	e2800001 	add	r0, r0, #1
   10c18:	e2855001 	add	r5, r5, #1
   10c1c:	e3550010 	cmp	r5, #16
   10c20:	1afffffa 	bne	10c10 <keyline1>
   10c24:	e3a05000 	mov	r5, #0
   10c28:	e3a00000 	mov	r0, #0
   10c2c:	e2822001 	add	r2, r2, #1
   10c30:	e2411004 	sub	r1, r1, #4
   10c34:	e0810502 	add	r0, r1, r2, lsl #10
   10c38:	e1a00080 	lsl	r0, r0, #1

00010c3c <keyline2>:
   10c3c:	e18430b0 	strh	r3, [r4, r0]
   10c40:	e2800001 	add	r0, r0, #1
   10c44:	e2855001 	add	r5, r5, #1
   10c48:	e3550020 	cmp	r5, #32
   10c4c:	1afffffa 	bne	10c3c <keyline2>
   10c50:	e3a05000 	mov	r5, #0
   10c54:	e3a06000 	mov	r6, #0
   10c58:	e3a00000 	mov	r0, #0
   10c5c:	e2822001 	add	r2, r2, #1
   10c60:	e0810502 	add	r0, r1, r2, lsl #10
   10c64:	e1a00080 	lsl	r0, r0, #1

00010c68 <keyline3part2>:
   10c68:	e18430b0 	strh	r3, [r4, r0]
   10c6c:	e2800001 	add	r0, r0, #1
   10c70:	e2855001 	add	r5, r5, #1
   10c74:	e3550004 	cmp	r5, #4
   10c78:	1afffffa 	bne	10c68 <keyline3part2>
   10c7c:	e3a05000 	mov	r5, #0
   10c80:	e3a00000 	mov	r0, #0
   10c84:	e281100e 	add	r1, r1, #14
   10c88:	e0810502 	add	r0, r1, r2, lsl #10
   10c8c:	e1a00080 	lsl	r0, r0, #1

00010c90 <keyline3part4>:
   10c90:	e18430b0 	strh	r3, [r4, r0]
   10c94:	e2800001 	add	r0, r0, #1
   10c98:	e2855001 	add	r5, r5, #1
   10c9c:	e3550004 	cmp	r5, #4
   10ca0:	1afffffa 	bne	10c90 <keyline3part4>
   10ca4:	e3a05000 	mov	r5, #0
   10ca8:	e3a00000 	mov	r0, #0
   10cac:	e2822001 	add	r2, r2, #1
   10cb0:	e241100e 	sub	r1, r1, #14
   10cb4:	e0810502 	add	r0, r1, r2, lsl #10
   10cb8:	e1a00080 	lsl	r0, r0, #1
   10cbc:	e2866001 	add	r6, r6, #1
   10cc0:	e3560005 	cmp	r6, #5
   10cc4:	1affffe7 	bne	10c68 <keyline3part2>
   10cc8:	e3a05000 	mov	r5, #0
   10ccc:	e3a06000 	mov	r6, #0
   10cd0:	e3a00000 	mov	r0, #0
   10cd4:	e0810502 	add	r0, r1, r2, lsl #10
   10cd8:	e1a00080 	lsl	r0, r0, #1

00010cdc <keyline8part2>:
   10cdc:	e18430b0 	strh	r3, [r4, r0]
   10ce0:	e2800001 	add	r0, r0, #1
   10ce4:	e2855001 	add	r5, r5, #1
   10ce8:	e3550020 	cmp	r5, #32
   10cec:	1afffffa 	bne	10cdc <keyline8part2>
   10cf0:	e3a05000 	mov	r5, #0
   10cf4:	e3a00000 	mov	r0, #0
   10cf8:	e2822001 	add	r2, r2, #1
   10cfc:	e0810502 	add	r0, r1, r2, lsl #10
   10d00:	e1a00080 	lsl	r0, r0, #1
   10d04:	e2866001 	add	r6, r6, #1
   10d08:	e3560002 	cmp	r6, #2
   10d0c:	1afffff2 	bne	10cdc <keyline8part2>
   10d10:	e3a05000 	mov	r5, #0
   10d14:	e3a06000 	mov	r6, #0
   10d18:	e3a00000 	mov	r0, #0
   10d1c:	e2811006 	add	r1, r1, #6
   10d20:	e0810502 	add	r0, r1, r2, lsl #10
   10d24:	e1a00080 	lsl	r0, r0, #1

00010d28 <keyline10part2>:
   10d28:	e18430b0 	strh	r3, [r4, r0]
   10d2c:	e2800001 	add	r0, r0, #1
   10d30:	e2855001 	add	r5, r5, #1
   10d34:	e3550008 	cmp	r5, #8
   10d38:	1afffffa 	bne	10d28 <keyline10part2>
   10d3c:	e3a05000 	mov	r5, #0
   10d40:	e3a00000 	mov	r0, #0
   10d44:	e2822001 	add	r2, r2, #1
   10d48:	e0810502 	add	r0, r1, r2, lsl #10
   10d4c:	e1a00080 	lsl	r0, r0, #1
   10d50:	e2866001 	add	r6, r6, #1
   10d54:	e3560002 	cmp	r6, #2
   10d58:	1afffff2 	bne	10d28 <keyline10part2>
   10d5c:	e3a05000 	mov	r5, #0
   10d60:	e3a06000 	mov	r6, #0
   10d64:	e3a00000 	mov	r0, #0
   10d68:	e2411003 	sub	r1, r1, #3
   10d6c:	e0810502 	add	r0, r1, r2, lsl #10
   10d70:	e1a00080 	lsl	r0, r0, #1

00010d74 <keyline12part2>:
   10d74:	e18430b0 	strh	r3, [r4, r0]
   10d78:	e2800001 	add	r0, r0, #1
   10d7c:	e2855001 	add	r5, r5, #1
   10d80:	e355000e 	cmp	r5, #14
   10d84:	1afffffa 	bne	10d74 <keyline12part2>
   10d88:	e3a05000 	mov	r5, #0
   10d8c:	e3a00000 	mov	r0, #0
   10d90:	e2822001 	add	r2, r2, #1
   10d94:	e0810502 	add	r0, r1, r2, lsl #10
   10d98:	e1a00080 	lsl	r0, r0, #1
   10d9c:	e2866001 	add	r6, r6, #1
   10da0:	e3560002 	cmp	r6, #2
   10da4:	1afffff2 	bne	10d74 <keyline12part2>
   10da8:	e3a05000 	mov	r5, #0
   10dac:	e3a06000 	mov	r6, #0
   10db0:	e3a00000 	mov	r0, #0
   10db4:	e2811003 	add	r1, r1, #3
   10db8:	e0810502 	add	r0, r1, r2, lsl #10
   10dbc:	e1a00080 	lsl	r0, r0, #1

00010dc0 <keyline14part2>:
   10dc0:	e18430b0 	strh	r3, [r4, r0]
   10dc4:	e2800001 	add	r0, r0, #1
   10dc8:	e2855001 	add	r5, r5, #1
   10dcc:	e3550008 	cmp	r5, #8
   10dd0:	1afffffa 	bne	10dc0 <keyline14part2>
   10dd4:	e3a05000 	mov	r5, #0
   10dd8:	e3a00000 	mov	r0, #0
   10ddc:	e2822001 	add	r2, r2, #1
   10de0:	e0810502 	add	r0, r1, r2, lsl #10
   10de4:	e1a00080 	lsl	r0, r0, #1
   10de8:	e2866001 	add	r6, r6, #1
   10dec:	e3560003 	cmp	r6, #3
   10df0:	1afffff2 	bne	10dc0 <keyline14part2>
   10df4:	e3a05000 	mov	r5, #0
   10df8:	e3a06000 	mov	r6, #0
   10dfc:	e3a00000 	mov	r0, #0
   10e00:	e2411005 	sub	r1, r1, #5
   10e04:	e0810502 	add	r0, r1, r2, lsl #10
   10e08:	e1a00080 	lsl	r0, r0, #1

00010e0c <keyline17part2>:
   10e0c:	e18430b0 	strh	r3, [r4, r0]
   10e10:	e2800001 	add	r0, r0, #1
   10e14:	e2855001 	add	r5, r5, #1
   10e18:	e3550012 	cmp	r5, #18
   10e1c:	1afffffa 	bne	10e0c <keyline17part2>
   10e20:	e3a05000 	mov	r5, #0
   10e24:	e3a00000 	mov	r0, #0
   10e28:	e2822001 	add	r2, r2, #1
   10e2c:	e0810502 	add	r0, r1, r2, lsl #10
   10e30:	e1a00080 	lsl	r0, r0, #1
   10e34:	e2866001 	add	r6, r6, #1
   10e38:	e3560002 	cmp	r6, #2
   10e3c:	1afffff2 	bne	10e0c <keyline17part2>
   10e40:	e3a05000 	mov	r5, #0
   10e44:	e3a06000 	mov	r6, #0
   10e48:	e3a00000 	mov	r0, #0
   10e4c:	e2811005 	add	r1, r1, #5
   10e50:	e0810502 	add	r0, r1, r2, lsl #10
   10e54:	e1a00080 	lsl	r0, r0, #1

00010e58 <keyline19part2>:
   10e58:	e18430b0 	strh	r3, [r4, r0]
   10e5c:	e2800001 	add	r0, r0, #1
   10e60:	e2855001 	add	r5, r5, #1
   10e64:	e3550008 	cmp	r5, #8
   10e68:	1afffffa 	bne	10e58 <keyline19part2>
   10e6c:	e3a05000 	mov	r5, #0
   10e70:	e3a00000 	mov	r0, #0
   10e74:	e2822001 	add	r2, r2, #1
   10e78:	e0810502 	add	r0, r1, r2, lsl #10
   10e7c:	e1a00080 	lsl	r0, r0, #1
   10e80:	e2866001 	add	r6, r6, #1
   10e84:	e3560003 	cmp	r6, #3
   10e88:	1afffff2 	bne	10e58 <keyline19part2>
   10e8c:	e3a05000 	mov	r5, #0
   10e90:	e3a06000 	mov	r6, #0
   10e94:	e3a00000 	mov	r0, #0
   10e98:	e2411003 	sub	r1, r1, #3
   10e9c:	e0810502 	add	r0, r1, r2, lsl #10
   10ea0:	e1a00080 	lsl	r0, r0, #1

00010ea4 <keyline22part2>:
   10ea4:	e18430b0 	strh	r3, [r4, r0]
   10ea8:	e2800001 	add	r0, r0, #1
   10eac:	e2855001 	add	r5, r5, #1
   10eb0:	e355000e 	cmp	r5, #14
   10eb4:	1afffffa 	bne	10ea4 <keyline22part2>
   10eb8:	e3a05000 	mov	r5, #0
   10ebc:	e3a00000 	mov	r0, #0
   10ec0:	e2822001 	add	r2, r2, #1
   10ec4:	e0810502 	add	r0, r1, r2, lsl #10
   10ec8:	e1a00080 	lsl	r0, r0, #1
   10ecc:	e2866001 	add	r6, r6, #1
   10ed0:	e3560002 	cmp	r6, #2
   10ed4:	1afffff2 	bne	10ea4 <keyline22part2>
   10ed8:	e3a05000 	mov	r5, #0
   10edc:	e3a06000 	mov	r6, #0
   10ee0:	e3a00000 	mov	r0, #0
   10ee4:	e2811003 	add	r1, r1, #3
   10ee8:	e0810502 	add	r0, r1, r2, lsl #10
   10eec:	e1a00080 	lsl	r0, r0, #1

00010ef0 <keyline24part2>:
   10ef0:	e18430b0 	strh	r3, [r4, r0]
   10ef4:	e2800001 	add	r0, r0, #1
   10ef8:	e2855001 	add	r5, r5, #1
   10efc:	e3550008 	cmp	r5, #8
   10f00:	1afffffa 	bne	10ef0 <keyline24part2>
   10f04:	e3a05000 	mov	r5, #0
   10f08:	e3a00000 	mov	r0, #0
   10f0c:	e2822001 	add	r2, r2, #1
   10f10:	e0810502 	add	r0, r1, r2, lsl #10
   10f14:	e1a00080 	lsl	r0, r0, #1
   10f18:	e2866001 	add	r6, r6, #1
   10f1c:	e3560002 	cmp	r6, #2
   10f20:	1afffff2 	bne	10ef0 <keyline24part2>
   10f24:	e3a05000 	mov	r5, #0
   10f28:	e3a06000 	mov	r6, #0
   10f2c:	e3a00000 	mov	r0, #0
   10f30:	e2411002 	sub	r1, r1, #2
   10f34:	e0810502 	add	r0, r1, r2, lsl #10
   10f38:	e1a00080 	lsl	r0, r0, #1

00010f3c <keyline26part2>:
   10f3c:	e18430b0 	strh	r3, [r4, r0]
   10f40:	e2800001 	add	r0, r0, #1
   10f44:	e2855001 	add	r5, r5, #1
   10f48:	e355000c 	cmp	r5, #12
   10f4c:	1afffffa 	bne	10f3c <keyline26part2>
   10f50:	e3a05000 	mov	r5, #0
   10f54:	e3a00000 	mov	r0, #0
   10f58:	e2822001 	add	r2, r2, #1
   10f5c:	e0810502 	add	r0, r1, r2, lsl #10
   10f60:	e1a00080 	lsl	r0, r0, #1
   10f64:	e2866001 	add	r6, r6, #1
   10f68:	e3560002 	cmp	r6, #2
   10f6c:	1afffff2 	bne	10f3c <keyline26part2>
   10f70:	e3a05000 	mov	r5, #0
   10f74:	e3a06000 	mov	r6, #0
   10f78:	e3a00000 	mov	r0, #0
   10f7c:	e2811002 	add	r1, r1, #2
   10f80:	e0810502 	add	r0, r1, r2, lsl #10
   10f84:	e1a00080 	lsl	r0, r0, #1

00010f88 <keyline28part2>:
   10f88:	e18430b0 	strh	r3, [r4, r0]
   10f8c:	e2800001 	add	r0, r0, #1
   10f90:	e2855001 	add	r5, r5, #1
   10f94:	e3550008 	cmp	r5, #8
   10f98:	1afffffa 	bne	10f88 <keyline28part2>
   10f9c:	e3a05000 	mov	r5, #0
   10fa0:	e3a00000 	mov	r0, #0
   10fa4:	e2822001 	add	r2, r2, #1
   10fa8:	e0810502 	add	r0, r1, r2, lsl #10
   10fac:	e1a00080 	lsl	r0, r0, #1
   10fb0:	e2866001 	add	r6, r6, #1
   10fb4:	e3560003 	cmp	r6, #3
   10fb8:	1afffff2 	bne	10f88 <keyline28part2>
   10fbc:	e8bd07ff 	pop	{r0, r1, r2, r3, r4, r5, r6, r7, r8, r9, sl}
   10fc0:	e12fff1e 	bx	lr
   10fc4:	00007bef 	.word	0x00007bef
   10fc8:	00ffff00 	.word	0x00ffff00

00010fcc <InitSNES>:
   10fcc:	e59f0058 	ldr	r0, [pc, #88]	; 1102c <InitSNES+0x60>
   10fd0:	e5901000 	ldr	r1, [r0]
   10fd4:	e3a02007 	mov	r2, #7
   10fd8:	e1a02182 	lsl	r2, r2, #3
   10fdc:	e1c11002 	bic	r1, r1, r2
   10fe0:	e3a03001 	mov	r3, #1
   10fe4:	e1a03183 	lsl	r3, r3, #3
   10fe8:	e1811003 	orr	r1, r1, r3
   10fec:	e5801000 	str	r1, [r0]
   10ff0:	e59f0038 	ldr	r0, [pc, #56]	; 11030 <InitSNES+0x64>
   10ff4:	e5901000 	ldr	r1, [r0]
   10ff8:	e3a02007 	mov	r2, #7
   10ffc:	e1a02d82 	lsl	r2, r2, #27
   11000:	e1c11002 	bic	r1, r1, r2
   11004:	e3a03001 	mov	r3, #1
   11008:	e1a03d83 	lsl	r3, r3, #27
   1100c:	e1811003 	orr	r1, r1, r3
   11010:	e5801000 	str	r1, [r0]
   11014:	e59f0010 	ldr	r0, [pc, #16]	; 1102c <InitSNES+0x60>
   11018:	e5901000 	ldr	r1, [r0]
   1101c:	e3a02007 	mov	r2, #7
   11020:	e1c11002 	bic	r1, r1, r2
   11024:	e5801000 	str	r1, [r0]
   11028:	e12fff1e 	bx	lr
   1102c:	20200004 	.word	0x20200004
   11030:	20200000 	.word	0x20200000

00011034 <Drawblueblock16bpp>:
   11034:	e92d07ff 	push	{r0, r1, r2, r3, r4, r5, r6, r7, r8, r9, sl}
   11038:	e59f30a4 	ldr	r3, [pc, #164]	; 110e4 <redblockfill+0x3c>
   1103c:	e3a00000 	mov	r0, #0
   11040:	e0810502 	add	r0, r1, r2, lsl #10
   11044:	e1a00080 	lsl	r0, r0, #1
   11048:	e3a05000 	mov	r5, #0
   1104c:	e3a06000 	mov	r6, #0

00011050 <blueblockfill>:
   11050:	e18430b0 	strh	r3, [r4, r0]
   11054:	e2800001 	add	r0, r0, #1
   11058:	e2855001 	add	r5, r5, #1
   1105c:	e3550020 	cmp	r5, #32
   11060:	1afffffa 	bne	11050 <blueblockfill>
   11064:	e2822001 	add	r2, r2, #1
   11068:	e3a00000 	mov	r0, #0
   1106c:	e0810502 	add	r0, r1, r2, lsl #10
   11070:	e1a00080 	lsl	r0, r0, #1
   11074:	e2866001 	add	r6, r6, #1
   11078:	e3a05000 	mov	r5, #0
   1107c:	e3560010 	cmp	r6, #16
   11080:	1afffff2 	bne	11050 <blueblockfill>
   11084:	e8bd07ff 	pop	{r0, r1, r2, r3, r4, r5, r6, r7, r8, r9, sl}
   11088:	e12fff1e 	bx	lr

0001108c <Drawredblock16bpp>:
   1108c:	e92d07ff 	push	{r0, r1, r2, r3, r4, r5, r6, r7, r8, r9, sl}
   11090:	e3a03cfb 	mov	r3, #64256	; 0xfb00
   11094:	e3a00000 	mov	r0, #0
   11098:	e0810502 	add	r0, r1, r2, lsl #10
   1109c:	e1a00080 	lsl	r0, r0, #1
   110a0:	e3a05000 	mov	r5, #0
   110a4:	e3a06000 	mov	r6, #0

000110a8 <redblockfill>:
   110a8:	e18430b0 	strh	r3, [r4, r0]
   110ac:	e2800001 	add	r0, r0, #1
   110b0:	e2855001 	add	r5, r5, #1
   110b4:	e3550020 	cmp	r5, #32
   110b8:	1affffe4 	bne	11050 <blueblockfill>
   110bc:	e2822001 	add	r2, r2, #1
   110c0:	e3a00000 	mov	r0, #0
   110c4:	e0810502 	add	r0, r1, r2, lsl #10
   110c8:	e1a00080 	lsl	r0, r0, #1
   110cc:	e2866001 	add	r6, r6, #1
   110d0:	e3a05000 	mov	r5, #0
   110d4:	e3560010 	cmp	r6, #16
   110d8:	1afffff2 	bne	110a8 <redblockfill>
   110dc:	e8bd07ff 	pop	{r0, r1, r2, r3, r4, r5, r6, r7, r8, r9, sl}
   110e0:	e12fff1e 	bx	lr
   110e4:	004c0099 	.word	0x004c0099

000110e8 <Lost>:
   110e8:	e92d07ff 	push	{r0, r1, r2, r3, r4, r5, r6, r7, r8, r9, sl}
   110ec:	e52de004 	push	{lr}		; (str lr, [sp, #-4]!)
   110f0:	ebfff295 	bl	db4c <Whitescreen16bpp>
   110f4:	e49de004 	pop	{lr}		; (ldr lr, [sp], #4)
   110f8:	e3a01064 	mov	r1, #100	; 0x64
   110fc:	e3a02064 	mov	r2, #100	; 0x64
   11100:	e52de004 	push	{lr}		; (str lr, [sp, #-4]!)
   11104:	ebffffe0 	bl	1108c <Drawredblock16bpp>
   11108:	e49de004 	pop	{lr}		; (ldr lr, [sp], #4)
   1110c:	e2811010 	add	r1, r1, #16
   11110:	e52de004 	push	{lr}		; (str lr, [sp, #-4]!)
   11114:	ebffffdc 	bl	1108c <Drawredblock16bpp>
   11118:	e49de004 	pop	{lr}		; (ldr lr, [sp], #4)
   1111c:	e2811010 	add	r1, r1, #16
   11120:	e52de004 	push	{lr}		; (str lr, [sp, #-4]!)
   11124:	ebffffd8 	bl	1108c <Drawredblock16bpp>
   11128:	e49de004 	pop	{lr}		; (ldr lr, [sp], #4)
   1112c:	e2811010 	add	r1, r1, #16
   11130:	e52de004 	push	{lr}		; (str lr, [sp, #-4]!)
   11134:	ebffffd4 	bl	1108c <Drawredblock16bpp>
   11138:	e49de004 	pop	{lr}		; (ldr lr, [sp], #4)
   1113c:	e2811010 	add	r1, r1, #16
   11140:	e52de004 	push	{lr}		; (str lr, [sp, #-4]!)
   11144:	ebffffd0 	bl	1108c <Drawredblock16bpp>
   11148:	e49de004 	pop	{lr}		; (ldr lr, [sp], #4)
   1114c:	e2811010 	add	r1, r1, #16
   11150:	e52de004 	push	{lr}		; (str lr, [sp, #-4]!)
   11154:	ebffffcc 	bl	1108c <Drawredblock16bpp>
   11158:	e49de004 	pop	{lr}		; (ldr lr, [sp], #4)
   1115c:	e2811010 	add	r1, r1, #16
   11160:	e52de004 	push	{lr}		; (str lr, [sp, #-4]!)
   11164:	ebffffc8 	bl	1108c <Drawredblock16bpp>
   11168:	e49de004 	pop	{lr}		; (ldr lr, [sp], #4)
   1116c:	e3a01064 	mov	r1, #100	; 0x64
   11170:	e2822010 	add	r2, r2, #16
   11174:	e52de004 	push	{lr}		; (str lr, [sp, #-4]!)
   11178:	ebffffc3 	bl	1108c <Drawredblock16bpp>
   1117c:	e49de004 	pop	{lr}		; (ldr lr, [sp], #4)
   11180:	e3a01064 	mov	r1, #100	; 0x64
   11184:	e2822010 	add	r2, r2, #16
   11188:	e52de004 	push	{lr}		; (str lr, [sp, #-4]!)
   1118c:	ebffffbe 	bl	1108c <Drawredblock16bpp>
   11190:	e49de004 	pop	{lr}		; (ldr lr, [sp], #4)
   11194:	e3a01064 	mov	r1, #100	; 0x64
   11198:	e2822010 	add	r2, r2, #16
   1119c:	e52de004 	push	{lr}		; (str lr, [sp, #-4]!)
   111a0:	ebffffb9 	bl	1108c <Drawredblock16bpp>
   111a4:	e49de004 	pop	{lr}		; (ldr lr, [sp], #4)
   111a8:	e3a01064 	mov	r1, #100	; 0x64
   111ac:	e2822010 	add	r2, r2, #16
   111b0:	e52de004 	push	{lr}		; (str lr, [sp, #-4]!)
   111b4:	ebffffb4 	bl	1108c <Drawredblock16bpp>
   111b8:	e49de004 	pop	{lr}		; (ldr lr, [sp], #4)
   111bc:	e2811040 	add	r1, r1, #64	; 0x40
   111c0:	e52de004 	push	{lr}		; (str lr, [sp, #-4]!)
   111c4:	ebffffb0 	bl	1108c <Drawredblock16bpp>
   111c8:	e49de004 	pop	{lr}		; (ldr lr, [sp], #4)
   111cc:	e2811010 	add	r1, r1, #16
   111d0:	e52de004 	push	{lr}		; (str lr, [sp, #-4]!)
   111d4:	ebffffac 	bl	1108c <Drawredblock16bpp>
   111d8:	e49de004 	pop	{lr}		; (ldr lr, [sp], #4)
   111dc:	e2811010 	add	r1, r1, #16
   111e0:	e52de004 	push	{lr}		; (str lr, [sp, #-4]!)
   111e4:	ebffffa8 	bl	1108c <Drawredblock16bpp>
   111e8:	e49de004 	pop	{lr}		; (ldr lr, [sp], #4)
   111ec:	e3a01064 	mov	r1, #100	; 0x64
   111f0:	e2822010 	add	r2, r2, #16
   111f4:	e52de004 	push	{lr}		; (str lr, [sp, #-4]!)
   111f8:	ebffffa3 	bl	1108c <Drawredblock16bpp>
   111fc:	e49de004 	pop	{lr}		; (ldr lr, [sp], #4)
   11200:	e2811060 	add	r1, r1, #96	; 0x60
   11204:	e52de004 	push	{lr}		; (str lr, [sp, #-4]!)
   11208:	ebffff9f 	bl	1108c <Drawredblock16bpp>
   1120c:	e49de004 	pop	{lr}		; (ldr lr, [sp], #4)
   11210:	e3a01064 	mov	r1, #100	; 0x64
   11214:	e2822010 	add	r2, r2, #16
   11218:	e52de004 	push	{lr}		; (str lr, [sp, #-4]!)
   1121c:	ebffff9a 	bl	1108c <Drawredblock16bpp>
   11220:	e49de004 	pop	{lr}		; (ldr lr, [sp], #4)
   11224:	e2811010 	add	r1, r1, #16
   11228:	e52de004 	push	{lr}		; (str lr, [sp, #-4]!)
   1122c:	ebffff96 	bl	1108c <Drawredblock16bpp>
   11230:	e49de004 	pop	{lr}		; (ldr lr, [sp], #4)
   11234:	e2811010 	add	r1, r1, #16
   11238:	e52de004 	push	{lr}		; (str lr, [sp, #-4]!)
   1123c:	ebffff92 	bl	1108c <Drawredblock16bpp>
   11240:	e49de004 	pop	{lr}		; (ldr lr, [sp], #4)
   11244:	e2811010 	add	r1, r1, #16
   11248:	e52de004 	push	{lr}		; (str lr, [sp, #-4]!)
   1124c:	ebffff8e 	bl	1108c <Drawredblock16bpp>
   11250:	e49de004 	pop	{lr}		; (ldr lr, [sp], #4)
   11254:	e2811010 	add	r1, r1, #16
   11258:	e52de004 	push	{lr}		; (str lr, [sp, #-4]!)
   1125c:	ebffff8a 	bl	1108c <Drawredblock16bpp>
   11260:	e49de004 	pop	{lr}		; (ldr lr, [sp], #4)
   11264:	e2811010 	add	r1, r1, #16
   11268:	e52de004 	push	{lr}		; (str lr, [sp, #-4]!)
   1126c:	ebffff86 	bl	1108c <Drawredblock16bpp>
   11270:	e49de004 	pop	{lr}		; (ldr lr, [sp], #4)
   11274:	e2811010 	add	r1, r1, #16
   11278:	e52de004 	push	{lr}		; (str lr, [sp, #-4]!)
   1127c:	ebffff82 	bl	1108c <Drawredblock16bpp>
   11280:	e49de004 	pop	{lr}		; (ldr lr, [sp], #4)
   11284:	e3a010e4 	mov	r1, #228	; 0xe4
   11288:	e3a02064 	mov	r2, #100	; 0x64
   1128c:	e52de004 	push	{lr}		; (str lr, [sp, #-4]!)
   11290:	ebffff7d 	bl	1108c <Drawredblock16bpp>
   11294:	e49de004 	pop	{lr}		; (ldr lr, [sp], #4)
   11298:	e2811010 	add	r1, r1, #16
   1129c:	e52de004 	push	{lr}		; (str lr, [sp, #-4]!)
   112a0:	ebffff79 	bl	1108c <Drawredblock16bpp>
   112a4:	e49de004 	pop	{lr}		; (ldr lr, [sp], #4)
   112a8:	e2811010 	add	r1, r1, #16
   112ac:	e52de004 	push	{lr}		; (str lr, [sp, #-4]!)
   112b0:	ebffff75 	bl	1108c <Drawredblock16bpp>
   112b4:	e49de004 	pop	{lr}		; (ldr lr, [sp], #4)
   112b8:	e2811010 	add	r1, r1, #16
   112bc:	e52de004 	push	{lr}		; (str lr, [sp, #-4]!)
   112c0:	ebffff71 	bl	1108c <Drawredblock16bpp>
   112c4:	e49de004 	pop	{lr}		; (ldr lr, [sp], #4)
   112c8:	e2811010 	add	r1, r1, #16
   112cc:	e52de004 	push	{lr}		; (str lr, [sp, #-4]!)
   112d0:	ebffff6d 	bl	1108c <Drawredblock16bpp>
   112d4:	e49de004 	pop	{lr}		; (ldr lr, [sp], #4)
   112d8:	e2811010 	add	r1, r1, #16
   112dc:	e52de004 	push	{lr}		; (str lr, [sp, #-4]!)
   112e0:	ebffff69 	bl	1108c <Drawredblock16bpp>
   112e4:	e49de004 	pop	{lr}		; (ldr lr, [sp], #4)
   112e8:	e2811010 	add	r1, r1, #16
   112ec:	e52de004 	push	{lr}		; (str lr, [sp, #-4]!)
   112f0:	ebffff65 	bl	1108c <Drawredblock16bpp>
   112f4:	e49de004 	pop	{lr}		; (ldr lr, [sp], #4)
   112f8:	e2811010 	add	r1, r1, #16
   112fc:	e3a010e4 	mov	r1, #228	; 0xe4
   11300:	e2822010 	add	r2, r2, #16
   11304:	e52de004 	push	{lr}		; (str lr, [sp, #-4]!)
   11308:	ebffff5f 	bl	1108c <Drawredblock16bpp>
   1130c:	e49de004 	pop	{lr}		; (ldr lr, [sp], #4)
   11310:	e2811060 	add	r1, r1, #96	; 0x60
   11314:	e52de004 	push	{lr}		; (str lr, [sp, #-4]!)
   11318:	ebffff5b 	bl	1108c <Drawredblock16bpp>
   1131c:	e49de004 	pop	{lr}		; (ldr lr, [sp], #4)
   11320:	e3a010e4 	mov	r1, #228	; 0xe4
   11324:	e2822010 	add	r2, r2, #16
   11328:	e52de004 	push	{lr}		; (str lr, [sp, #-4]!)
   1132c:	ebffff56 	bl	1108c <Drawredblock16bpp>
   11330:	e49de004 	pop	{lr}		; (ldr lr, [sp], #4)
   11334:	e2811060 	add	r1, r1, #96	; 0x60
   11338:	e52de004 	push	{lr}		; (str lr, [sp, #-4]!)
   1133c:	ebffff52 	bl	1108c <Drawredblock16bpp>
   11340:	e49de004 	pop	{lr}		; (ldr lr, [sp], #4)
   11344:	e3a010e4 	mov	r1, #228	; 0xe4
   11348:	e2822010 	add	r2, r2, #16
   1134c:	e52de004 	push	{lr}		; (str lr, [sp, #-4]!)
   11350:	ebffff4d 	bl	1108c <Drawredblock16bpp>
   11354:	e49de004 	pop	{lr}		; (ldr lr, [sp], #4)
   11358:	e2811060 	add	r1, r1, #96	; 0x60
   1135c:	e52de004 	push	{lr}		; (str lr, [sp, #-4]!)
   11360:	ebffff49 	bl	1108c <Drawredblock16bpp>
   11364:	e49de004 	pop	{lr}		; (ldr lr, [sp], #4)
   11368:	e3a010e4 	mov	r1, #228	; 0xe4
   1136c:	e2822010 	add	r2, r2, #16
   11370:	e52de004 	push	{lr}		; (str lr, [sp, #-4]!)
   11374:	ebffff44 	bl	1108c <Drawredblock16bpp>
   11378:	e49de004 	pop	{lr}		; (ldr lr, [sp], #4)
   1137c:	e2811010 	add	r1, r1, #16
   11380:	e52de004 	push	{lr}		; (str lr, [sp, #-4]!)
   11384:	ebffff40 	bl	1108c <Drawredblock16bpp>
   11388:	e49de004 	pop	{lr}		; (ldr lr, [sp], #4)
   1138c:	e2811010 	add	r1, r1, #16
   11390:	e52de004 	push	{lr}		; (str lr, [sp, #-4]!)
   11394:	ebffff3c 	bl	1108c <Drawredblock16bpp>
   11398:	e49de004 	pop	{lr}		; (ldr lr, [sp], #4)
   1139c:	e2811010 	add	r1, r1, #16
   113a0:	e52de004 	push	{lr}		; (str lr, [sp, #-4]!)
   113a4:	ebffff38 	bl	1108c <Drawredblock16bpp>
   113a8:	e49de004 	pop	{lr}		; (ldr lr, [sp], #4)
   113ac:	e2811010 	add	r1, r1, #16
   113b0:	e52de004 	push	{lr}		; (str lr, [sp, #-4]!)
   113b4:	ebffff34 	bl	1108c <Drawredblock16bpp>
   113b8:	e49de004 	pop	{lr}		; (ldr lr, [sp], #4)
   113bc:	e2811010 	add	r1, r1, #16
   113c0:	e52de004 	push	{lr}		; (str lr, [sp, #-4]!)
   113c4:	ebffff30 	bl	1108c <Drawredblock16bpp>
   113c8:	e49de004 	pop	{lr}		; (ldr lr, [sp], #4)
   113cc:	e2811010 	add	r1, r1, #16
   113d0:	e52de004 	push	{lr}		; (str lr, [sp, #-4]!)
   113d4:	ebffff2c 	bl	1108c <Drawredblock16bpp>
   113d8:	e49de004 	pop	{lr}		; (ldr lr, [sp], #4)
   113dc:	e2811010 	add	r1, r1, #16
   113e0:	e3a010e4 	mov	r1, #228	; 0xe4
   113e4:	e2822010 	add	r2, r2, #16
   113e8:	e52de004 	push	{lr}		; (str lr, [sp, #-4]!)
   113ec:	ebffff26 	bl	1108c <Drawredblock16bpp>
   113f0:	e49de004 	pop	{lr}		; (ldr lr, [sp], #4)
   113f4:	e2811060 	add	r1, r1, #96	; 0x60
   113f8:	e52de004 	push	{lr}		; (str lr, [sp, #-4]!)
   113fc:	ebffff22 	bl	1108c <Drawredblock16bpp>
   11400:	e49de004 	pop	{lr}		; (ldr lr, [sp], #4)
   11404:	e3a010e4 	mov	r1, #228	; 0xe4
   11408:	e2822010 	add	r2, r2, #16
   1140c:	e52de004 	push	{lr}		; (str lr, [sp, #-4]!)
   11410:	ebffff1d 	bl	1108c <Drawredblock16bpp>
   11414:	e49de004 	pop	{lr}		; (ldr lr, [sp], #4)
   11418:	e2811060 	add	r1, r1, #96	; 0x60
   1141c:	e52de004 	push	{lr}		; (str lr, [sp, #-4]!)
   11420:	ebffff19 	bl	1108c <Drawredblock16bpp>
   11424:	e49de004 	pop	{lr}		; (ldr lr, [sp], #4)
   11428:	e3a01f59 	mov	r1, #356	; 0x164
   1142c:	e3a02064 	mov	r2, #100	; 0x64
   11430:	e52de004 	push	{lr}		; (str lr, [sp, #-4]!)
   11434:	ebffff14 	bl	1108c <Drawredblock16bpp>
   11438:	e49de004 	pop	{lr}		; (ldr lr, [sp], #4)
   1143c:	e2811010 	add	r1, r1, #16
   11440:	e52de004 	push	{lr}		; (str lr, [sp, #-4]!)
   11444:	ebffff10 	bl	1108c <Drawredblock16bpp>
   11448:	e49de004 	pop	{lr}		; (ldr lr, [sp], #4)
   1144c:	e2811040 	add	r1, r1, #64	; 0x40
   11450:	e52de004 	push	{lr}		; (str lr, [sp, #-4]!)
   11454:	ebffff0c 	bl	1108c <Drawredblock16bpp>
   11458:	e49de004 	pop	{lr}		; (ldr lr, [sp], #4)
   1145c:	e2811010 	add	r1, r1, #16
   11460:	e52de004 	push	{lr}		; (str lr, [sp, #-4]!)
   11464:	ebffff08 	bl	1108c <Drawredblock16bpp>
   11468:	e49de004 	pop	{lr}		; (ldr lr, [sp], #4)
   1146c:	e3a01f59 	mov	r1, #356	; 0x164
   11470:	e2822010 	add	r2, r2, #16
   11474:	e52de004 	push	{lr}		; (str lr, [sp, #-4]!)
   11478:	ebffff03 	bl	1108c <Drawredblock16bpp>
   1147c:	e49de004 	pop	{lr}		; (ldr lr, [sp], #4)
   11480:	e2811020 	add	r1, r1, #32
   11484:	e52de004 	push	{lr}		; (str lr, [sp, #-4]!)
   11488:	ebfffeff 	bl	1108c <Drawredblock16bpp>
   1148c:	e49de004 	pop	{lr}		; (ldr lr, [sp], #4)
   11490:	e2811020 	add	r1, r1, #32
   11494:	e52de004 	push	{lr}		; (str lr, [sp, #-4]!)
   11498:	ebfffefb 	bl	1108c <Drawredblock16bpp>
   1149c:	e49de004 	pop	{lr}		; (ldr lr, [sp], #4)
   114a0:	e2811020 	add	r1, r1, #32
   114a4:	e52de004 	push	{lr}		; (str lr, [sp, #-4]!)
   114a8:	ebfffef7 	bl	1108c <Drawredblock16bpp>
   114ac:	e49de004 	pop	{lr}		; (ldr lr, [sp], #4)
   114b0:	e3a01f59 	mov	r1, #356	; 0x164
   114b4:	e2822010 	add	r2, r2, #16
   114b8:	e52de004 	push	{lr}		; (str lr, [sp, #-4]!)
   114bc:	ebfffef2 	bl	1108c <Drawredblock16bpp>
   114c0:	e49de004 	pop	{lr}		; (ldr lr, [sp], #4)
   114c4:	e2811030 	add	r1, r1, #48	; 0x30
   114c8:	e52de004 	push	{lr}		; (str lr, [sp, #-4]!)
   114cc:	ebfffeee 	bl	1108c <Drawredblock16bpp>
   114d0:	e49de004 	pop	{lr}		; (ldr lr, [sp], #4)
   114d4:	e2811030 	add	r1, r1, #48	; 0x30
   114d8:	e52de004 	push	{lr}		; (str lr, [sp, #-4]!)
   114dc:	ebfffeea 	bl	1108c <Drawredblock16bpp>
   114e0:	e49de004 	pop	{lr}		; (ldr lr, [sp], #4)
   114e4:	e3a01f59 	mov	r1, #356	; 0x164
   114e8:	e2822010 	add	r2, r2, #16
   114ec:	e52de004 	push	{lr}		; (str lr, [sp, #-4]!)
   114f0:	ebfffee5 	bl	1108c <Drawredblock16bpp>
   114f4:	e49de004 	pop	{lr}		; (ldr lr, [sp], #4)
   114f8:	e2811060 	add	r1, r1, #96	; 0x60
   114fc:	e52de004 	push	{lr}		; (str lr, [sp, #-4]!)
   11500:	ebfffee1 	bl	1108c <Drawredblock16bpp>
   11504:	e49de004 	pop	{lr}		; (ldr lr, [sp], #4)
   11508:	e3a01f59 	mov	r1, #356	; 0x164
   1150c:	e2822010 	add	r2, r2, #16
   11510:	e52de004 	push	{lr}		; (str lr, [sp, #-4]!)
   11514:	ebfffedc 	bl	1108c <Drawredblock16bpp>
   11518:	e49de004 	pop	{lr}		; (ldr lr, [sp], #4)
   1151c:	e2811060 	add	r1, r1, #96	; 0x60
   11520:	e52de004 	push	{lr}		; (str lr, [sp, #-4]!)
   11524:	ebfffed8 	bl	1108c <Drawredblock16bpp>
   11528:	e49de004 	pop	{lr}		; (ldr lr, [sp], #4)
   1152c:	e3a01f59 	mov	r1, #356	; 0x164
   11530:	e2822010 	add	r2, r2, #16
   11534:	e52de004 	push	{lr}		; (str lr, [sp, #-4]!)
   11538:	ebfffed3 	bl	1108c <Drawredblock16bpp>
   1153c:	e49de004 	pop	{lr}		; (ldr lr, [sp], #4)
   11540:	e2811060 	add	r1, r1, #96	; 0x60
   11544:	e52de004 	push	{lr}		; (str lr, [sp, #-4]!)
   11548:	ebfffecf 	bl	1108c <Drawredblock16bpp>
   1154c:	e49de004 	pop	{lr}		; (ldr lr, [sp], #4)
   11550:	e3a01f59 	mov	r1, #356	; 0x164
   11554:	e2822010 	add	r2, r2, #16
   11558:	e52de004 	push	{lr}		; (str lr, [sp, #-4]!)
   1155c:	ebfffeca 	bl	1108c <Drawredblock16bpp>
   11560:	e49de004 	pop	{lr}		; (ldr lr, [sp], #4)
   11564:	e2811060 	add	r1, r1, #96	; 0x60
   11568:	e52de004 	push	{lr}		; (str lr, [sp, #-4]!)
   1156c:	ebfffec6 	bl	1108c <Drawredblock16bpp>
   11570:	e49de004 	pop	{lr}		; (ldr lr, [sp], #4)
   11574:	e3a01f79 	mov	r1, #484	; 0x1e4
   11578:	e3a02064 	mov	r2, #100	; 0x64
   1157c:	e52de004 	push	{lr}		; (str lr, [sp, #-4]!)
   11580:	ebfffec1 	bl	1108c <Drawredblock16bpp>
   11584:	e49de004 	pop	{lr}		; (ldr lr, [sp], #4)
   11588:	e2811010 	add	r1, r1, #16
   1158c:	e52de004 	push	{lr}		; (str lr, [sp, #-4]!)
   11590:	ebfffebd 	bl	1108c <Drawredblock16bpp>
   11594:	e49de004 	pop	{lr}		; (ldr lr, [sp], #4)
   11598:	e2811010 	add	r1, r1, #16
   1159c:	e52de004 	push	{lr}		; (str lr, [sp, #-4]!)
   115a0:	ebfffeb9 	bl	1108c <Drawredblock16bpp>
   115a4:	e49de004 	pop	{lr}		; (ldr lr, [sp], #4)
   115a8:	e2811010 	add	r1, r1, #16
   115ac:	e52de004 	push	{lr}		; (str lr, [sp, #-4]!)
   115b0:	ebfffeb5 	bl	1108c <Drawredblock16bpp>
   115b4:	e49de004 	pop	{lr}		; (ldr lr, [sp], #4)
   115b8:	e2811010 	add	r1, r1, #16
   115bc:	e52de004 	push	{lr}		; (str lr, [sp, #-4]!)
   115c0:	ebfffeb1 	bl	1108c <Drawredblock16bpp>
   115c4:	e49de004 	pop	{lr}		; (ldr lr, [sp], #4)
   115c8:	e2811010 	add	r1, r1, #16
   115cc:	e52de004 	push	{lr}		; (str lr, [sp, #-4]!)
   115d0:	ebfffead 	bl	1108c <Drawredblock16bpp>
   115d4:	e49de004 	pop	{lr}		; (ldr lr, [sp], #4)
   115d8:	e3a01f79 	mov	r1, #484	; 0x1e4
   115dc:	e2822010 	add	r2, r2, #16
   115e0:	e52de004 	push	{lr}		; (str lr, [sp, #-4]!)
   115e4:	ebfffea8 	bl	1108c <Drawredblock16bpp>
   115e8:	e49de004 	pop	{lr}		; (ldr lr, [sp], #4)
   115ec:	e3a01f79 	mov	r1, #484	; 0x1e4
   115f0:	e2822010 	add	r2, r2, #16
   115f4:	e52de004 	push	{lr}		; (str lr, [sp, #-4]!)
   115f8:	ebfffea3 	bl	1108c <Drawredblock16bpp>
   115fc:	e49de004 	pop	{lr}		; (ldr lr, [sp], #4)
   11600:	e3a01f79 	mov	r1, #484	; 0x1e4
   11604:	e2822010 	add	r2, r2, #16
   11608:	e52de004 	push	{lr}		; (str lr, [sp, #-4]!)
   1160c:	ebfffe9e 	bl	1108c <Drawredblock16bpp>
   11610:	e49de004 	pop	{lr}		; (ldr lr, [sp], #4)
   11614:	e2811010 	add	r1, r1, #16
   11618:	e52de004 	push	{lr}		; (str lr, [sp, #-4]!)
   1161c:	ebfffe9a 	bl	1108c <Drawredblock16bpp>
   11620:	e49de004 	pop	{lr}		; (ldr lr, [sp], #4)
   11624:	e2811010 	add	r1, r1, #16
   11628:	e52de004 	push	{lr}		; (str lr, [sp, #-4]!)
   1162c:	ebfffe96 	bl	1108c <Drawredblock16bpp>
   11630:	e49de004 	pop	{lr}		; (ldr lr, [sp], #4)
   11634:	e2811010 	add	r1, r1, #16
   11638:	e52de004 	push	{lr}		; (str lr, [sp, #-4]!)
   1163c:	ebfffe92 	bl	1108c <Drawredblock16bpp>
   11640:	e49de004 	pop	{lr}		; (ldr lr, [sp], #4)
   11644:	e3a01f79 	mov	r1, #484	; 0x1e4
   11648:	e2822010 	add	r2, r2, #16
   1164c:	e52de004 	push	{lr}		; (str lr, [sp, #-4]!)
   11650:	ebfffe8d 	bl	1108c <Drawredblock16bpp>
   11654:	e49de004 	pop	{lr}		; (ldr lr, [sp], #4)
   11658:	e3a01f79 	mov	r1, #484	; 0x1e4
   1165c:	e2822010 	add	r2, r2, #16
   11660:	e52de004 	push	{lr}		; (str lr, [sp, #-4]!)
   11664:	ebfffe88 	bl	1108c <Drawredblock16bpp>
   11668:	e49de004 	pop	{lr}		; (ldr lr, [sp], #4)
   1166c:	e3a01f79 	mov	r1, #484	; 0x1e4
   11670:	e2822010 	add	r2, r2, #16
   11674:	e52de004 	push	{lr}		; (str lr, [sp, #-4]!)
   11678:	ebfffe83 	bl	1108c <Drawredblock16bpp>
   1167c:	e49de004 	pop	{lr}		; (ldr lr, [sp], #4)
   11680:	e2811010 	add	r1, r1, #16
   11684:	e52de004 	push	{lr}		; (str lr, [sp, #-4]!)
   11688:	ebfffe7f 	bl	1108c <Drawredblock16bpp>
   1168c:	e49de004 	pop	{lr}		; (ldr lr, [sp], #4)
   11690:	e2811010 	add	r1, r1, #16
   11694:	e52de004 	push	{lr}		; (str lr, [sp, #-4]!)
   11698:	ebfffe7b 	bl	1108c <Drawredblock16bpp>
   1169c:	e49de004 	pop	{lr}		; (ldr lr, [sp], #4)
   116a0:	e2811010 	add	r1, r1, #16
   116a4:	e52de004 	push	{lr}		; (str lr, [sp, #-4]!)
   116a8:	ebfffe77 	bl	1108c <Drawredblock16bpp>
   116ac:	e49de004 	pop	{lr}		; (ldr lr, [sp], #4)
   116b0:	e2811010 	add	r1, r1, #16
   116b4:	e52de004 	push	{lr}		; (str lr, [sp, #-4]!)
   116b8:	ebfffe73 	bl	1108c <Drawredblock16bpp>
   116bc:	e49de004 	pop	{lr}		; (ldr lr, [sp], #4)
   116c0:	e2811010 	add	r1, r1, #16
   116c4:	e52de004 	push	{lr}		; (str lr, [sp, #-4]!)
   116c8:	ebfffe6f 	bl	1108c <Drawredblock16bpp>
   116cc:	e49de004 	pop	{lr}		; (ldr lr, [sp], #4)
   116d0:	e3a010e4 	mov	r1, #228	; 0xe4
   116d4:	e3a020e4 	mov	r2, #228	; 0xe4
   116d8:	e52de004 	push	{lr}		; (str lr, [sp, #-4]!)
   116dc:	ebfffe6a 	bl	1108c <Drawredblock16bpp>
   116e0:	e49de004 	pop	{lr}		; (ldr lr, [sp], #4)
   116e4:	e2811010 	add	r1, r1, #16
   116e8:	e52de004 	push	{lr}		; (str lr, [sp, #-4]!)
   116ec:	ebfffe66 	bl	1108c <Drawredblock16bpp>
   116f0:	e49de004 	pop	{lr}		; (ldr lr, [sp], #4)
   116f4:	e2811010 	add	r1, r1, #16
   116f8:	e52de004 	push	{lr}		; (str lr, [sp, #-4]!)
   116fc:	ebfffe62 	bl	1108c <Drawredblock16bpp>
   11700:	e49de004 	pop	{lr}		; (ldr lr, [sp], #4)
   11704:	e2811010 	add	r1, r1, #16
   11708:	e52de004 	push	{lr}		; (str lr, [sp, #-4]!)
   1170c:	ebfffe5e 	bl	1108c <Drawredblock16bpp>
   11710:	e49de004 	pop	{lr}		; (ldr lr, [sp], #4)
   11714:	e2811010 	add	r1, r1, #16
   11718:	e52de004 	push	{lr}		; (str lr, [sp, #-4]!)
   1171c:	ebfffe5a 	bl	1108c <Drawredblock16bpp>
   11720:	e49de004 	pop	{lr}		; (ldr lr, [sp], #4)
   11724:	e2811010 	add	r1, r1, #16
   11728:	e52de004 	push	{lr}		; (str lr, [sp, #-4]!)
   1172c:	ebfffe56 	bl	1108c <Drawredblock16bpp>
   11730:	e49de004 	pop	{lr}		; (ldr lr, [sp], #4)
   11734:	e2811010 	add	r1, r1, #16
   11738:	e52de004 	push	{lr}		; (str lr, [sp, #-4]!)
   1173c:	ebfffe52 	bl	1108c <Drawredblock16bpp>
   11740:	e49de004 	pop	{lr}		; (ldr lr, [sp], #4)
   11744:	e3a010e4 	mov	r1, #228	; 0xe4
   11748:	e2822010 	add	r2, r2, #16
   1174c:	e52de004 	push	{lr}		; (str lr, [sp, #-4]!)
   11750:	ebfffe4d 	bl	1108c <Drawredblock16bpp>
   11754:	e49de004 	pop	{lr}		; (ldr lr, [sp], #4)
   11758:	e2811060 	add	r1, r1, #96	; 0x60
   1175c:	e52de004 	push	{lr}		; (str lr, [sp, #-4]!)
   11760:	ebfffe49 	bl	1108c <Drawredblock16bpp>
   11764:	e49de004 	pop	{lr}		; (ldr lr, [sp], #4)
   11768:	e3a010e4 	mov	r1, #228	; 0xe4
   1176c:	e2822010 	add	r2, r2, #16
   11770:	e52de004 	push	{lr}		; (str lr, [sp, #-4]!)
   11774:	ebfffe44 	bl	1108c <Drawredblock16bpp>
   11778:	e49de004 	pop	{lr}		; (ldr lr, [sp], #4)
   1177c:	e2811060 	add	r1, r1, #96	; 0x60
   11780:	e52de004 	push	{lr}		; (str lr, [sp, #-4]!)
   11784:	ebfffe40 	bl	1108c <Drawredblock16bpp>
   11788:	e49de004 	pop	{lr}		; (ldr lr, [sp], #4)
   1178c:	e3a010e4 	mov	r1, #228	; 0xe4
   11790:	e2822010 	add	r2, r2, #16
   11794:	e52de004 	push	{lr}		; (str lr, [sp, #-4]!)
   11798:	ebfffe3b 	bl	1108c <Drawredblock16bpp>
   1179c:	e49de004 	pop	{lr}		; (ldr lr, [sp], #4)
   117a0:	e2811060 	add	r1, r1, #96	; 0x60
   117a4:	e52de004 	push	{lr}		; (str lr, [sp, #-4]!)
   117a8:	ebfffe37 	bl	1108c <Drawredblock16bpp>
   117ac:	e49de004 	pop	{lr}		; (ldr lr, [sp], #4)
   117b0:	e3a010e4 	mov	r1, #228	; 0xe4
   117b4:	e2822010 	add	r2, r2, #16
   117b8:	e52de004 	push	{lr}		; (str lr, [sp, #-4]!)
   117bc:	ebfffe32 	bl	1108c <Drawredblock16bpp>
   117c0:	e49de004 	pop	{lr}		; (ldr lr, [sp], #4)
   117c4:	e2811060 	add	r1, r1, #96	; 0x60
   117c8:	e52de004 	push	{lr}		; (str lr, [sp, #-4]!)
   117cc:	ebfffe2e 	bl	1108c <Drawredblock16bpp>
   117d0:	e49de004 	pop	{lr}		; (ldr lr, [sp], #4)
   117d4:	e3a010e4 	mov	r1, #228	; 0xe4
   117d8:	e2822010 	add	r2, r2, #16
   117dc:	e52de004 	push	{lr}		; (str lr, [sp, #-4]!)
   117e0:	ebfffe29 	bl	1108c <Drawredblock16bpp>
   117e4:	e49de004 	pop	{lr}		; (ldr lr, [sp], #4)
   117e8:	e2811060 	add	r1, r1, #96	; 0x60
   117ec:	e52de004 	push	{lr}		; (str lr, [sp, #-4]!)
   117f0:	ebfffe25 	bl	1108c <Drawredblock16bpp>
   117f4:	e49de004 	pop	{lr}		; (ldr lr, [sp], #4)
   117f8:	e3a010e4 	mov	r1, #228	; 0xe4
   117fc:	e2822010 	add	r2, r2, #16
   11800:	e52de004 	push	{lr}		; (str lr, [sp, #-4]!)
   11804:	ebfffe20 	bl	1108c <Drawredblock16bpp>
   11808:	e49de004 	pop	{lr}		; (ldr lr, [sp], #4)
   1180c:	e2811010 	add	r1, r1, #16
   11810:	e52de004 	push	{lr}		; (str lr, [sp, #-4]!)
   11814:	ebfffe1c 	bl	1108c <Drawredblock16bpp>
   11818:	e49de004 	pop	{lr}		; (ldr lr, [sp], #4)
   1181c:	e2811010 	add	r1, r1, #16
   11820:	e52de004 	push	{lr}		; (str lr, [sp, #-4]!)
   11824:	ebfffe18 	bl	1108c <Drawredblock16bpp>
   11828:	e49de004 	pop	{lr}		; (ldr lr, [sp], #4)
   1182c:	e2811010 	add	r1, r1, #16
   11830:	e52de004 	push	{lr}		; (str lr, [sp, #-4]!)
   11834:	ebfffe14 	bl	1108c <Drawredblock16bpp>
   11838:	e49de004 	pop	{lr}		; (ldr lr, [sp], #4)
   1183c:	e2811010 	add	r1, r1, #16
   11840:	e52de004 	push	{lr}		; (str lr, [sp, #-4]!)
   11844:	ebfffe10 	bl	1108c <Drawredblock16bpp>
   11848:	e49de004 	pop	{lr}		; (ldr lr, [sp], #4)
   1184c:	e2811010 	add	r1, r1, #16
   11850:	e52de004 	push	{lr}		; (str lr, [sp, #-4]!)
   11854:	ebfffe0c 	bl	1108c <Drawredblock16bpp>
   11858:	e49de004 	pop	{lr}		; (ldr lr, [sp], #4)
   1185c:	e2811010 	add	r1, r1, #16
   11860:	e52de004 	push	{lr}		; (str lr, [sp, #-4]!)
   11864:	ebfffe08 	bl	1108c <Drawredblock16bpp>
   11868:	e49de004 	pop	{lr}		; (ldr lr, [sp], #4)
   1186c:	e3a01f59 	mov	r1, #356	; 0x164
   11870:	e3a020e4 	mov	r2, #228	; 0xe4
   11874:	e52de004 	push	{lr}		; (str lr, [sp, #-4]!)
   11878:	ebfffe03 	bl	1108c <Drawredblock16bpp>
   1187c:	e49de004 	pop	{lr}		; (ldr lr, [sp], #4)
   11880:	e2811060 	add	r1, r1, #96	; 0x60
   11884:	e52de004 	push	{lr}		; (str lr, [sp, #-4]!)
   11888:	ebfffdff 	bl	1108c <Drawredblock16bpp>
   1188c:	e49de004 	pop	{lr}		; (ldr lr, [sp], #4)
   11890:	e3a01f59 	mov	r1, #356	; 0x164
   11894:	e2822010 	add	r2, r2, #16
   11898:	e52de004 	push	{lr}		; (str lr, [sp, #-4]!)
   1189c:	ebfffdfa 	bl	1108c <Drawredblock16bpp>
   118a0:	e49de004 	pop	{lr}		; (ldr lr, [sp], #4)
   118a4:	e2811060 	add	r1, r1, #96	; 0x60
   118a8:	e52de004 	push	{lr}		; (str lr, [sp, #-4]!)
   118ac:	ebfffdf6 	bl	1108c <Drawredblock16bpp>
   118b0:	e49de004 	pop	{lr}		; (ldr lr, [sp], #4)
   118b4:	e3a01f5d 	mov	r1, #372	; 0x174
   118b8:	e2822010 	add	r2, r2, #16
   118bc:	e52de004 	push	{lr}		; (str lr, [sp, #-4]!)
   118c0:	ebfffdf1 	bl	1108c <Drawredblock16bpp>
   118c4:	e49de004 	pop	{lr}		; (ldr lr, [sp], #4)
   118c8:	e2811040 	add	r1, r1, #64	; 0x40
   118cc:	e52de004 	push	{lr}		; (str lr, [sp, #-4]!)
   118d0:	ebfffded 	bl	1108c <Drawredblock16bpp>
   118d4:	e49de004 	pop	{lr}		; (ldr lr, [sp], #4)
   118d8:	e3a01f5d 	mov	r1, #372	; 0x174
   118dc:	e2822010 	add	r2, r2, #16
   118e0:	e52de004 	push	{lr}		; (str lr, [sp, #-4]!)
   118e4:	ebfffde8 	bl	1108c <Drawredblock16bpp>
   118e8:	e49de004 	pop	{lr}		; (ldr lr, [sp], #4)
   118ec:	e2811040 	add	r1, r1, #64	; 0x40
   118f0:	e52de004 	push	{lr}		; (str lr, [sp, #-4]!)
   118f4:	ebfffde4 	bl	1108c <Drawredblock16bpp>
   118f8:	e49de004 	pop	{lr}		; (ldr lr, [sp], #4)
   118fc:	e3a01f61 	mov	r1, #388	; 0x184
   11900:	e2822010 	add	r2, r2, #16
   11904:	e52de004 	push	{lr}		; (str lr, [sp, #-4]!)
   11908:	ebfffddf 	bl	1108c <Drawredblock16bpp>
   1190c:	e49de004 	pop	{lr}		; (ldr lr, [sp], #4)
   11910:	e2811020 	add	r1, r1, #32
   11914:	e52de004 	push	{lr}		; (str lr, [sp, #-4]!)
   11918:	ebfffddb 	bl	1108c <Drawredblock16bpp>
   1191c:	e49de004 	pop	{lr}		; (ldr lr, [sp], #4)
   11920:	e3a01f61 	mov	r1, #388	; 0x184
   11924:	e2822010 	add	r2, r2, #16
   11928:	e52de004 	push	{lr}		; (str lr, [sp, #-4]!)
   1192c:	ebfffdd6 	bl	1108c <Drawredblock16bpp>
   11930:	e49de004 	pop	{lr}		; (ldr lr, [sp], #4)
   11934:	e2811020 	add	r1, r1, #32
   11938:	e52de004 	push	{lr}		; (str lr, [sp, #-4]!)
   1193c:	ebfffdd2 	bl	1108c <Drawredblock16bpp>
   11940:	e49de004 	pop	{lr}		; (ldr lr, [sp], #4)
   11944:	e3a01f65 	mov	r1, #404	; 0x194
   11948:	e2822010 	add	r2, r2, #16
   1194c:	e52de004 	push	{lr}		; (str lr, [sp, #-4]!)
   11950:	ebfffdcd 	bl	1108c <Drawredblock16bpp>
   11954:	e49de004 	pop	{lr}		; (ldr lr, [sp], #4)
   11958:	e3a01f79 	mov	r1, #484	; 0x1e4
   1195c:	e3a020e4 	mov	r2, #228	; 0xe4
   11960:	e52de004 	push	{lr}		; (str lr, [sp, #-4]!)
   11964:	ebfffdc8 	bl	1108c <Drawredblock16bpp>
   11968:	e49de004 	pop	{lr}		; (ldr lr, [sp], #4)
   1196c:	e2811010 	add	r1, r1, #16
   11970:	e52de004 	push	{lr}		; (str lr, [sp, #-4]!)
   11974:	ebfffdc4 	bl	1108c <Drawredblock16bpp>
   11978:	e49de004 	pop	{lr}		; (ldr lr, [sp], #4)
   1197c:	e2811010 	add	r1, r1, #16
   11980:	e52de004 	push	{lr}		; (str lr, [sp, #-4]!)
   11984:	ebfffdc0 	bl	1108c <Drawredblock16bpp>
   11988:	e49de004 	pop	{lr}		; (ldr lr, [sp], #4)
   1198c:	e2811010 	add	r1, r1, #16
   11990:	e52de004 	push	{lr}		; (str lr, [sp, #-4]!)
   11994:	ebfffdbc 	bl	1108c <Drawredblock16bpp>
   11998:	e49de004 	pop	{lr}		; (ldr lr, [sp], #4)
   1199c:	e2811010 	add	r1, r1, #16
   119a0:	e52de004 	push	{lr}		; (str lr, [sp, #-4]!)
   119a4:	ebfffdb8 	bl	1108c <Drawredblock16bpp>
   119a8:	e49de004 	pop	{lr}		; (ldr lr, [sp], #4)
   119ac:	e2811010 	add	r1, r1, #16
   119b0:	e52de004 	push	{lr}		; (str lr, [sp, #-4]!)
   119b4:	ebfffdb4 	bl	1108c <Drawredblock16bpp>
   119b8:	e49de004 	pop	{lr}		; (ldr lr, [sp], #4)
   119bc:	e3a01f79 	mov	r1, #484	; 0x1e4
   119c0:	e2822010 	add	r2, r2, #16
   119c4:	e52de004 	push	{lr}		; (str lr, [sp, #-4]!)
   119c8:	ebfffdaf 	bl	1108c <Drawredblock16bpp>
   119cc:	e49de004 	pop	{lr}		; (ldr lr, [sp], #4)
   119d0:	e3a01f79 	mov	r1, #484	; 0x1e4
   119d4:	e2822010 	add	r2, r2, #16
   119d8:	e52de004 	push	{lr}		; (str lr, [sp, #-4]!)
   119dc:	ebfffdaa 	bl	1108c <Drawredblock16bpp>
   119e0:	e49de004 	pop	{lr}		; (ldr lr, [sp], #4)
   119e4:	e3a01f79 	mov	r1, #484	; 0x1e4
   119e8:	e2822010 	add	r2, r2, #16
   119ec:	e52de004 	push	{lr}		; (str lr, [sp, #-4]!)
   119f0:	ebfffda5 	bl	1108c <Drawredblock16bpp>
   119f4:	e49de004 	pop	{lr}		; (ldr lr, [sp], #4)
   119f8:	e2811010 	add	r1, r1, #16
   119fc:	e52de004 	push	{lr}		; (str lr, [sp, #-4]!)
   11a00:	ebfffda1 	bl	1108c <Drawredblock16bpp>
   11a04:	e49de004 	pop	{lr}		; (ldr lr, [sp], #4)
   11a08:	e2811010 	add	r1, r1, #16
   11a0c:	e52de004 	push	{lr}		; (str lr, [sp, #-4]!)
   11a10:	ebfffd9d 	bl	1108c <Drawredblock16bpp>
   11a14:	e49de004 	pop	{lr}		; (ldr lr, [sp], #4)
   11a18:	e2811010 	add	r1, r1, #16
   11a1c:	e52de004 	push	{lr}		; (str lr, [sp, #-4]!)
   11a20:	ebfffd99 	bl	1108c <Drawredblock16bpp>
   11a24:	e49de004 	pop	{lr}		; (ldr lr, [sp], #4)
   11a28:	e3a01f79 	mov	r1, #484	; 0x1e4
   11a2c:	e2822010 	add	r2, r2, #16
   11a30:	e52de004 	push	{lr}		; (str lr, [sp, #-4]!)
   11a34:	ebfffd94 	bl	1108c <Drawredblock16bpp>
   11a38:	e49de004 	pop	{lr}		; (ldr lr, [sp], #4)
   11a3c:	e3a01f79 	mov	r1, #484	; 0x1e4
   11a40:	e2822010 	add	r2, r2, #16
   11a44:	e52de004 	push	{lr}		; (str lr, [sp, #-4]!)
   11a48:	ebfffd8f 	bl	1108c <Drawredblock16bpp>
   11a4c:	e49de004 	pop	{lr}		; (ldr lr, [sp], #4)
   11a50:	e3a01f79 	mov	r1, #484	; 0x1e4
   11a54:	e2822010 	add	r2, r2, #16
   11a58:	e52de004 	push	{lr}		; (str lr, [sp, #-4]!)
   11a5c:	ebfffd8a 	bl	1108c <Drawredblock16bpp>
   11a60:	e49de004 	pop	{lr}		; (ldr lr, [sp], #4)
   11a64:	e2811010 	add	r1, r1, #16
   11a68:	e52de004 	push	{lr}		; (str lr, [sp, #-4]!)
   11a6c:	ebfffd86 	bl	1108c <Drawredblock16bpp>
   11a70:	e49de004 	pop	{lr}		; (ldr lr, [sp], #4)
   11a74:	e2811010 	add	r1, r1, #16
   11a78:	e52de004 	push	{lr}		; (str lr, [sp, #-4]!)
   11a7c:	ebfffd82 	bl	1108c <Drawredblock16bpp>
   11a80:	e49de004 	pop	{lr}		; (ldr lr, [sp], #4)
   11a84:	e2811010 	add	r1, r1, #16
   11a88:	e52de004 	push	{lr}		; (str lr, [sp, #-4]!)
   11a8c:	ebfffd7e 	bl	1108c <Drawredblock16bpp>
   11a90:	e49de004 	pop	{lr}		; (ldr lr, [sp], #4)
   11a94:	e2811010 	add	r1, r1, #16
   11a98:	e52de004 	push	{lr}		; (str lr, [sp, #-4]!)
   11a9c:	ebfffd7a 	bl	1108c <Drawredblock16bpp>
   11aa0:	e49de004 	pop	{lr}		; (ldr lr, [sp], #4)
   11aa4:	e2811010 	add	r1, r1, #16
   11aa8:	e52de004 	push	{lr}		; (str lr, [sp, #-4]!)
   11aac:	ebfffd76 	bl	1108c <Drawredblock16bpp>
   11ab0:	e49de004 	pop	{lr}		; (ldr lr, [sp], #4)
   11ab4:	e3a01f99 	mov	r1, #612	; 0x264
   11ab8:	e3a020e4 	mov	r2, #228	; 0xe4
   11abc:	e52de004 	push	{lr}		; (str lr, [sp, #-4]!)
   11ac0:	ebfffd71 	bl	1108c <Drawredblock16bpp>
   11ac4:	e49de004 	pop	{lr}		; (ldr lr, [sp], #4)
   11ac8:	e2811010 	add	r1, r1, #16
   11acc:	e52de004 	push	{lr}		; (str lr, [sp, #-4]!)
   11ad0:	ebfffd6d 	bl	1108c <Drawredblock16bpp>
   11ad4:	e49de004 	pop	{lr}		; (ldr lr, [sp], #4)
   11ad8:	e2811010 	add	r1, r1, #16
   11adc:	e52de004 	push	{lr}		; (str lr, [sp, #-4]!)
   11ae0:	ebfffd69 	bl	1108c <Drawredblock16bpp>
   11ae4:	e49de004 	pop	{lr}		; (ldr lr, [sp], #4)
   11ae8:	e2811010 	add	r1, r1, #16
   11aec:	e52de004 	push	{lr}		; (str lr, [sp, #-4]!)
   11af0:	ebfffd65 	bl	1108c <Drawredblock16bpp>
   11af4:	e49de004 	pop	{lr}		; (ldr lr, [sp], #4)
   11af8:	e2811010 	add	r1, r1, #16
   11afc:	e52de004 	push	{lr}		; (str lr, [sp, #-4]!)
   11b00:	ebfffd61 	bl	1108c <Drawredblock16bpp>
   11b04:	e49de004 	pop	{lr}		; (ldr lr, [sp], #4)
   11b08:	e2811010 	add	r1, r1, #16
   11b0c:	e52de004 	push	{lr}		; (str lr, [sp, #-4]!)
   11b10:	ebfffd5d 	bl	1108c <Drawredblock16bpp>
   11b14:	e49de004 	pop	{lr}		; (ldr lr, [sp], #4)
   11b18:	e2811010 	add	r1, r1, #16
   11b1c:	e52de004 	push	{lr}		; (str lr, [sp, #-4]!)
   11b20:	ebfffd59 	bl	1108c <Drawredblock16bpp>
   11b24:	e49de004 	pop	{lr}		; (ldr lr, [sp], #4)
   11b28:	e3a01f99 	mov	r1, #612	; 0x264
   11b2c:	e2822010 	add	r2, r2, #16
   11b30:	e52de004 	push	{lr}		; (str lr, [sp, #-4]!)
   11b34:	ebfffd54 	bl	1108c <Drawredblock16bpp>
   11b38:	e49de004 	pop	{lr}		; (ldr lr, [sp], #4)
   11b3c:	e2811060 	add	r1, r1, #96	; 0x60
   11b40:	e52de004 	push	{lr}		; (str lr, [sp, #-4]!)
   11b44:	ebfffd50 	bl	1108c <Drawredblock16bpp>
   11b48:	e49de004 	pop	{lr}		; (ldr lr, [sp], #4)
   11b4c:	e3a01f99 	mov	r1, #612	; 0x264
   11b50:	e2822010 	add	r2, r2, #16
   11b54:	e52de004 	push	{lr}		; (str lr, [sp, #-4]!)
   11b58:	ebfffd4b 	bl	1108c <Drawredblock16bpp>
   11b5c:	e49de004 	pop	{lr}		; (ldr lr, [sp], #4)
   11b60:	e2811010 	add	r1, r1, #16
   11b64:	e52de004 	push	{lr}		; (str lr, [sp, #-4]!)
   11b68:	ebfffd47 	bl	1108c <Drawredblock16bpp>
   11b6c:	e49de004 	pop	{lr}		; (ldr lr, [sp], #4)
   11b70:	e2811010 	add	r1, r1, #16
   11b74:	e52de004 	push	{lr}		; (str lr, [sp, #-4]!)
   11b78:	ebfffd43 	bl	1108c <Drawredblock16bpp>
   11b7c:	e49de004 	pop	{lr}		; (ldr lr, [sp], #4)
   11b80:	e2811010 	add	r1, r1, #16
   11b84:	e52de004 	push	{lr}		; (str lr, [sp, #-4]!)
   11b88:	ebfffd3f 	bl	1108c <Drawredblock16bpp>
   11b8c:	e49de004 	pop	{lr}		; (ldr lr, [sp], #4)
   11b90:	e2811010 	add	r1, r1, #16
   11b94:	e52de004 	push	{lr}		; (str lr, [sp, #-4]!)
   11b98:	ebfffd3b 	bl	1108c <Drawredblock16bpp>
   11b9c:	e49de004 	pop	{lr}		; (ldr lr, [sp], #4)
   11ba0:	e2811010 	add	r1, r1, #16
   11ba4:	e52de004 	push	{lr}		; (str lr, [sp, #-4]!)
   11ba8:	ebfffd37 	bl	1108c <Drawredblock16bpp>
   11bac:	e49de004 	pop	{lr}		; (ldr lr, [sp], #4)
   11bb0:	e2811010 	add	r1, r1, #16
   11bb4:	e52de004 	push	{lr}		; (str lr, [sp, #-4]!)
   11bb8:	ebfffd33 	bl	1108c <Drawredblock16bpp>
   11bbc:	e49de004 	pop	{lr}		; (ldr lr, [sp], #4)
   11bc0:	e3a01f99 	mov	r1, #612	; 0x264
   11bc4:	e2822010 	add	r2, r2, #16
   11bc8:	e52de004 	push	{lr}		; (str lr, [sp, #-4]!)
   11bcc:	ebfffd2e 	bl	1108c <Drawredblock16bpp>
   11bd0:	e49de004 	pop	{lr}		; (ldr lr, [sp], #4)
   11bd4:	e2811010 	add	r1, r1, #16
   11bd8:	e52de004 	push	{lr}		; (str lr, [sp, #-4]!)
   11bdc:	ebfffd2a 	bl	1108c <Drawredblock16bpp>
   11be0:	e49de004 	pop	{lr}		; (ldr lr, [sp], #4)
   11be4:	e3a01f99 	mov	r1, #612	; 0x264
   11be8:	e2822010 	add	r2, r2, #16
   11bec:	e52de004 	push	{lr}		; (str lr, [sp, #-4]!)
   11bf0:	ebfffd25 	bl	1108c <Drawredblock16bpp>
   11bf4:	e49de004 	pop	{lr}		; (ldr lr, [sp], #4)
   11bf8:	e2811020 	add	r1, r1, #32
   11bfc:	e52de004 	push	{lr}		; (str lr, [sp, #-4]!)
   11c00:	ebfffd21 	bl	1108c <Drawredblock16bpp>
   11c04:	e49de004 	pop	{lr}		; (ldr lr, [sp], #4)
   11c08:	e2811010 	add	r1, r1, #16
   11c0c:	e52de004 	push	{lr}		; (str lr, [sp, #-4]!)
   11c10:	ebfffd1d 	bl	1108c <Drawredblock16bpp>
   11c14:	e49de004 	pop	{lr}		; (ldr lr, [sp], #4)
   11c18:	e3a01f99 	mov	r1, #612	; 0x264
   11c1c:	e2822010 	add	r2, r2, #16
   11c20:	e52de004 	push	{lr}		; (str lr, [sp, #-4]!)
   11c24:	ebfffd18 	bl	1108c <Drawredblock16bpp>
   11c28:	e49de004 	pop	{lr}		; (ldr lr, [sp], #4)
   11c2c:	e2811040 	add	r1, r1, #64	; 0x40
   11c30:	e52de004 	push	{lr}		; (str lr, [sp, #-4]!)
   11c34:	ebfffd14 	bl	1108c <Drawredblock16bpp>
   11c38:	e49de004 	pop	{lr}		; (ldr lr, [sp], #4)
   11c3c:	e2811010 	add	r1, r1, #16
   11c40:	e52de004 	push	{lr}		; (str lr, [sp, #-4]!)
   11c44:	ebfffd10 	bl	1108c <Drawredblock16bpp>
   11c48:	e49de004 	pop	{lr}		; (ldr lr, [sp], #4)
   11c4c:	e3a01f99 	mov	r1, #612	; 0x264
   11c50:	e2822010 	add	r2, r2, #16
   11c54:	e52de004 	push	{lr}		; (str lr, [sp, #-4]!)
   11c58:	ebfffd0b 	bl	1108c <Drawredblock16bpp>
   11c5c:	e49de004 	pop	{lr}		; (ldr lr, [sp], #4)
   11c60:	e2811060 	add	r1, r1, #96	; 0x60
   11c64:	e52de004 	push	{lr}		; (str lr, [sp, #-4]!)
   11c68:	ebfffd07 	bl	1108c <Drawredblock16bpp>
   11c6c:	e49de004 	pop	{lr}		; (ldr lr, [sp], #4)
   11c70:	e3a01f59 	mov	r1, #356	; 0x164
   11c74:	e3a02f59 	mov	r2, #356	; 0x164
   11c78:	e52de004 	push	{lr}		; (str lr, [sp, #-4]!)
   11c7c:	ebfffd02 	bl	1108c <Drawredblock16bpp>
   11c80:	e49de004 	pop	{lr}		; (ldr lr, [sp], #4)
   11c84:	e2811060 	add	r1, r1, #96	; 0x60
   11c88:	e52de004 	push	{lr}		; (str lr, [sp, #-4]!)
   11c8c:	ebfffcfe 	bl	1108c <Drawredblock16bpp>
   11c90:	e49de004 	pop	{lr}		; (ldr lr, [sp], #4)
   11c94:	e3a01f5d 	mov	r1, #372	; 0x174
   11c98:	e2822010 	add	r2, r2, #16
   11c9c:	e52de004 	push	{lr}		; (str lr, [sp, #-4]!)
   11ca0:	ebfffcf9 	bl	1108c <Drawredblock16bpp>
   11ca4:	e49de004 	pop	{lr}		; (ldr lr, [sp], #4)
   11ca8:	e2811040 	add	r1, r1, #64	; 0x40
   11cac:	e52de004 	push	{lr}		; (str lr, [sp, #-4]!)
   11cb0:	ebfffcf5 	bl	1108c <Drawredblock16bpp>
   11cb4:	e49de004 	pop	{lr}		; (ldr lr, [sp], #4)
   11cb8:	e3a01f61 	mov	r1, #388	; 0x184
   11cbc:	e2822010 	add	r2, r2, #16
   11cc0:	e52de004 	push	{lr}		; (str lr, [sp, #-4]!)
   11cc4:	ebfffcf0 	bl	1108c <Drawredblock16bpp>
   11cc8:	e49de004 	pop	{lr}		; (ldr lr, [sp], #4)
   11ccc:	e2811020 	add	r1, r1, #32
   11cd0:	e52de004 	push	{lr}		; (str lr, [sp, #-4]!)
   11cd4:	ebfffcec 	bl	1108c <Drawredblock16bpp>
   11cd8:	e49de004 	pop	{lr}		; (ldr lr, [sp], #4)
   11cdc:	e3a01f65 	mov	r1, #404	; 0x194
   11ce0:	e2822010 	add	r2, r2, #16
   11ce4:	e52de004 	push	{lr}		; (str lr, [sp, #-4]!)
   11ce8:	ebfffce7 	bl	1108c <Drawredblock16bpp>
   11cec:	e49de004 	pop	{lr}		; (ldr lr, [sp], #4)
   11cf0:	e3a01f65 	mov	r1, #404	; 0x194
   11cf4:	e2822010 	add	r2, r2, #16
   11cf8:	e52de004 	push	{lr}		; (str lr, [sp, #-4]!)
   11cfc:	ebfffce2 	bl	1108c <Drawredblock16bpp>
   11d00:	e49de004 	pop	{lr}		; (ldr lr, [sp], #4)
   11d04:	e3a01f65 	mov	r1, #404	; 0x194
   11d08:	e2822010 	add	r2, r2, #16
   11d0c:	e52de004 	push	{lr}		; (str lr, [sp, #-4]!)
   11d10:	ebfffcdd 	bl	1108c <Drawredblock16bpp>
   11d14:	e49de004 	pop	{lr}		; (ldr lr, [sp], #4)
   11d18:	e3a01f65 	mov	r1, #404	; 0x194
   11d1c:	e2822010 	add	r2, r2, #16
   11d20:	e52de004 	push	{lr}		; (str lr, [sp, #-4]!)
   11d24:	ebfffcd8 	bl	1108c <Drawredblock16bpp>
   11d28:	e49de004 	pop	{lr}		; (ldr lr, [sp], #4)
   11d2c:	e3a01f79 	mov	r1, #484	; 0x1e4
   11d30:	e3a02f59 	mov	r2, #356	; 0x164
   11d34:	e52de004 	push	{lr}		; (str lr, [sp, #-4]!)
   11d38:	ebfffcd3 	bl	1108c <Drawredblock16bpp>
   11d3c:	e49de004 	pop	{lr}		; (ldr lr, [sp], #4)
   11d40:	e2811010 	add	r1, r1, #16
   11d44:	e52de004 	push	{lr}		; (str lr, [sp, #-4]!)
   11d48:	ebfffccf 	bl	1108c <Drawredblock16bpp>
   11d4c:	e49de004 	pop	{lr}		; (ldr lr, [sp], #4)
   11d50:	e2811010 	add	r1, r1, #16
   11d54:	e52de004 	push	{lr}		; (str lr, [sp, #-4]!)
   11d58:	ebfffccb 	bl	1108c <Drawredblock16bpp>
   11d5c:	e49de004 	pop	{lr}		; (ldr lr, [sp], #4)
   11d60:	e2811010 	add	r1, r1, #16
   11d64:	e52de004 	push	{lr}		; (str lr, [sp, #-4]!)
   11d68:	ebfffcc7 	bl	1108c <Drawredblock16bpp>
   11d6c:	e49de004 	pop	{lr}		; (ldr lr, [sp], #4)
   11d70:	e2811010 	add	r1, r1, #16
   11d74:	e52de004 	push	{lr}		; (str lr, [sp, #-4]!)
   11d78:	ebfffcc3 	bl	1108c <Drawredblock16bpp>
   11d7c:	e49de004 	pop	{lr}		; (ldr lr, [sp], #4)
   11d80:	e2811010 	add	r1, r1, #16
   11d84:	e52de004 	push	{lr}		; (str lr, [sp, #-4]!)
   11d88:	ebfffcbf 	bl	1108c <Drawredblock16bpp>
   11d8c:	e49de004 	pop	{lr}		; (ldr lr, [sp], #4)
   11d90:	e2811010 	add	r1, r1, #16
   11d94:	e52de004 	push	{lr}		; (str lr, [sp, #-4]!)
   11d98:	ebfffcbb 	bl	1108c <Drawredblock16bpp>
   11d9c:	e49de004 	pop	{lr}		; (ldr lr, [sp], #4)
   11da0:	e3a01f79 	mov	r1, #484	; 0x1e4
   11da4:	e2822010 	add	r2, r2, #16
   11da8:	e52de004 	push	{lr}		; (str lr, [sp, #-4]!)
   11dac:	ebfffcb6 	bl	1108c <Drawredblock16bpp>
   11db0:	e49de004 	pop	{lr}		; (ldr lr, [sp], #4)
   11db4:	e2811060 	add	r1, r1, #96	; 0x60
   11db8:	e52de004 	push	{lr}		; (str lr, [sp, #-4]!)
   11dbc:	ebfffcb2 	bl	1108c <Drawredblock16bpp>
   11dc0:	e49de004 	pop	{lr}		; (ldr lr, [sp], #4)
   11dc4:	e3a01f79 	mov	r1, #484	; 0x1e4
   11dc8:	e2822010 	add	r2, r2, #16
   11dcc:	e52de004 	push	{lr}		; (str lr, [sp, #-4]!)
   11dd0:	ebfffcad 	bl	1108c <Drawredblock16bpp>
   11dd4:	e49de004 	pop	{lr}		; (ldr lr, [sp], #4)
   11dd8:	e2811060 	add	r1, r1, #96	; 0x60
   11ddc:	e52de004 	push	{lr}		; (str lr, [sp, #-4]!)
   11de0:	ebfffca9 	bl	1108c <Drawredblock16bpp>
   11de4:	e49de004 	pop	{lr}		; (ldr lr, [sp], #4)
   11de8:	e3a01f79 	mov	r1, #484	; 0x1e4
   11dec:	e2822010 	add	r2, r2, #16
   11df0:	e52de004 	push	{lr}		; (str lr, [sp, #-4]!)
   11df4:	ebfffca4 	bl	1108c <Drawredblock16bpp>
   11df8:	e49de004 	pop	{lr}		; (ldr lr, [sp], #4)
   11dfc:	e2811060 	add	r1, r1, #96	; 0x60
   11e00:	e52de004 	push	{lr}		; (str lr, [sp, #-4]!)
   11e04:	ebfffca0 	bl	1108c <Drawredblock16bpp>
   11e08:	e49de004 	pop	{lr}		; (ldr lr, [sp], #4)
   11e0c:	e3a01f79 	mov	r1, #484	; 0x1e4
   11e10:	e2822010 	add	r2, r2, #16
   11e14:	e52de004 	push	{lr}		; (str lr, [sp, #-4]!)
   11e18:	ebfffc9b 	bl	1108c <Drawredblock16bpp>
   11e1c:	e49de004 	pop	{lr}		; (ldr lr, [sp], #4)
   11e20:	e2811060 	add	r1, r1, #96	; 0x60
   11e24:	e52de004 	push	{lr}		; (str lr, [sp, #-4]!)
   11e28:	ebfffc97 	bl	1108c <Drawredblock16bpp>
   11e2c:	e49de004 	pop	{lr}		; (ldr lr, [sp], #4)
   11e30:	e3a01f79 	mov	r1, #484	; 0x1e4
   11e34:	e2822010 	add	r2, r2, #16
   11e38:	e52de004 	push	{lr}		; (str lr, [sp, #-4]!)
   11e3c:	ebfffc92 	bl	1108c <Drawredblock16bpp>
   11e40:	e49de004 	pop	{lr}		; (ldr lr, [sp], #4)
   11e44:	e2811060 	add	r1, r1, #96	; 0x60
   11e48:	e52de004 	push	{lr}		; (str lr, [sp, #-4]!)
   11e4c:	ebfffc8e 	bl	1108c <Drawredblock16bpp>
   11e50:	e49de004 	pop	{lr}		; (ldr lr, [sp], #4)
   11e54:	e3a01f79 	mov	r1, #484	; 0x1e4
   11e58:	e2822010 	add	r2, r2, #16
   11e5c:	e52de004 	push	{lr}		; (str lr, [sp, #-4]!)
   11e60:	ebfffc89 	bl	1108c <Drawredblock16bpp>
   11e64:	e49de004 	pop	{lr}		; (ldr lr, [sp], #4)
   11e68:	e2811010 	add	r1, r1, #16
   11e6c:	e52de004 	push	{lr}		; (str lr, [sp, #-4]!)
   11e70:	ebfffc85 	bl	1108c <Drawredblock16bpp>
   11e74:	e49de004 	pop	{lr}		; (ldr lr, [sp], #4)
   11e78:	e2811010 	add	r1, r1, #16
   11e7c:	e52de004 	push	{lr}		; (str lr, [sp, #-4]!)
   11e80:	ebfffc81 	bl	1108c <Drawredblock16bpp>
   11e84:	e49de004 	pop	{lr}		; (ldr lr, [sp], #4)
   11e88:	e2811010 	add	r1, r1, #16
   11e8c:	e52de004 	push	{lr}		; (str lr, [sp, #-4]!)
   11e90:	ebfffc7d 	bl	1108c <Drawredblock16bpp>
   11e94:	e49de004 	pop	{lr}		; (ldr lr, [sp], #4)
   11e98:	e2811010 	add	r1, r1, #16
   11e9c:	e52de004 	push	{lr}		; (str lr, [sp, #-4]!)
   11ea0:	ebfffc79 	bl	1108c <Drawredblock16bpp>
   11ea4:	e49de004 	pop	{lr}		; (ldr lr, [sp], #4)
   11ea8:	e2811010 	add	r1, r1, #16
   11eac:	e52de004 	push	{lr}		; (str lr, [sp, #-4]!)
   11eb0:	ebfffc75 	bl	1108c <Drawredblock16bpp>
   11eb4:	e49de004 	pop	{lr}		; (ldr lr, [sp], #4)
   11eb8:	e2811010 	add	r1, r1, #16
   11ebc:	e52de004 	push	{lr}		; (str lr, [sp, #-4]!)
   11ec0:	ebfffc71 	bl	1108c <Drawredblock16bpp>
   11ec4:	e49de004 	pop	{lr}		; (ldr lr, [sp], #4)
   11ec8:	e3a01f99 	mov	r1, #612	; 0x264
   11ecc:	e3a02f59 	mov	r2, #356	; 0x164
   11ed0:	e52de004 	push	{lr}		; (str lr, [sp, #-4]!)
   11ed4:	ebfffc6c 	bl	1108c <Drawredblock16bpp>
   11ed8:	e49de004 	pop	{lr}		; (ldr lr, [sp], #4)
   11edc:	e2811060 	add	r1, r1, #96	; 0x60
   11ee0:	e52de004 	push	{lr}		; (str lr, [sp, #-4]!)
   11ee4:	ebfffc68 	bl	1108c <Drawredblock16bpp>
   11ee8:	e49de004 	pop	{lr}		; (ldr lr, [sp], #4)
   11eec:	e3a01f99 	mov	r1, #612	; 0x264
   11ef0:	e2822010 	add	r2, r2, #16
   11ef4:	e52de004 	push	{lr}		; (str lr, [sp, #-4]!)
   11ef8:	ebfffc63 	bl	1108c <Drawredblock16bpp>
   11efc:	e49de004 	pop	{lr}		; (ldr lr, [sp], #4)
   11f00:	e2811060 	add	r1, r1, #96	; 0x60
   11f04:	e52de004 	push	{lr}		; (str lr, [sp, #-4]!)
   11f08:	ebfffc5f 	bl	1108c <Drawredblock16bpp>
   11f0c:	e49de004 	pop	{lr}		; (ldr lr, [sp], #4)
   11f10:	e3a01f99 	mov	r1, #612	; 0x264
   11f14:	e2822010 	add	r2, r2, #16
   11f18:	e52de004 	push	{lr}		; (str lr, [sp, #-4]!)
   11f1c:	ebfffc5a 	bl	1108c <Drawredblock16bpp>
   11f20:	e49de004 	pop	{lr}		; (ldr lr, [sp], #4)
   11f24:	e2811060 	add	r1, r1, #96	; 0x60
   11f28:	e52de004 	push	{lr}		; (str lr, [sp, #-4]!)
   11f2c:	ebfffc56 	bl	1108c <Drawredblock16bpp>
   11f30:	e49de004 	pop	{lr}		; (ldr lr, [sp], #4)
   11f34:	e3a01f99 	mov	r1, #612	; 0x264
   11f38:	e2822010 	add	r2, r2, #16
   11f3c:	e52de004 	push	{lr}		; (str lr, [sp, #-4]!)
   11f40:	ebfffc51 	bl	1108c <Drawredblock16bpp>
   11f44:	e49de004 	pop	{lr}		; (ldr lr, [sp], #4)
   11f48:	e2811060 	add	r1, r1, #96	; 0x60
   11f4c:	e52de004 	push	{lr}		; (str lr, [sp, #-4]!)
   11f50:	ebfffc4d 	bl	1108c <Drawredblock16bpp>
   11f54:	e49de004 	pop	{lr}		; (ldr lr, [sp], #4)
   11f58:	e3a01f99 	mov	r1, #612	; 0x264
   11f5c:	e2822010 	add	r2, r2, #16
   11f60:	e52de004 	push	{lr}		; (str lr, [sp, #-4]!)
   11f64:	ebfffc48 	bl	1108c <Drawredblock16bpp>
   11f68:	e49de004 	pop	{lr}		; (ldr lr, [sp], #4)
   11f6c:	e2811060 	add	r1, r1, #96	; 0x60
   11f70:	e52de004 	push	{lr}		; (str lr, [sp, #-4]!)
   11f74:	ebfffc44 	bl	1108c <Drawredblock16bpp>
   11f78:	e49de004 	pop	{lr}		; (ldr lr, [sp], #4)
   11f7c:	e3a01f99 	mov	r1, #612	; 0x264
   11f80:	e2822010 	add	r2, r2, #16
   11f84:	e52de004 	push	{lr}		; (str lr, [sp, #-4]!)
   11f88:	ebfffc3f 	bl	1108c <Drawredblock16bpp>
   11f8c:	e49de004 	pop	{lr}		; (ldr lr, [sp], #4)
   11f90:	e2811060 	add	r1, r1, #96	; 0x60
   11f94:	e52de004 	push	{lr}		; (str lr, [sp, #-4]!)
   11f98:	ebfffc3b 	bl	1108c <Drawredblock16bpp>
   11f9c:	e49de004 	pop	{lr}		; (ldr lr, [sp], #4)
   11fa0:	e3a01f99 	mov	r1, #612	; 0x264
   11fa4:	e2822010 	add	r2, r2, #16
   11fa8:	e52de004 	push	{lr}		; (str lr, [sp, #-4]!)
   11fac:	ebfffc36 	bl	1108c <Drawredblock16bpp>
   11fb0:	e49de004 	pop	{lr}		; (ldr lr, [sp], #4)
   11fb4:	e2811010 	add	r1, r1, #16
   11fb8:	e52de004 	push	{lr}		; (str lr, [sp, #-4]!)
   11fbc:	ebfffc32 	bl	1108c <Drawredblock16bpp>
   11fc0:	e49de004 	pop	{lr}		; (ldr lr, [sp], #4)
   11fc4:	e2811010 	add	r1, r1, #16
   11fc8:	e52de004 	push	{lr}		; (str lr, [sp, #-4]!)
   11fcc:	ebfffc2e 	bl	1108c <Drawredblock16bpp>
   11fd0:	e49de004 	pop	{lr}		; (ldr lr, [sp], #4)
   11fd4:	e2811010 	add	r1, r1, #16
   11fd8:	e52de004 	push	{lr}		; (str lr, [sp, #-4]!)
   11fdc:	ebfffc2a 	bl	1108c <Drawredblock16bpp>
   11fe0:	e49de004 	pop	{lr}		; (ldr lr, [sp], #4)
   11fe4:	e2811010 	add	r1, r1, #16
   11fe8:	e52de004 	push	{lr}		; (str lr, [sp, #-4]!)
   11fec:	ebfffc26 	bl	1108c <Drawredblock16bpp>
   11ff0:	e49de004 	pop	{lr}		; (ldr lr, [sp], #4)
   11ff4:	e2811010 	add	r1, r1, #16
   11ff8:	e52de004 	push	{lr}		; (str lr, [sp, #-4]!)
   11ffc:	ebfffc22 	bl	1108c <Drawredblock16bpp>
   12000:	e49de004 	pop	{lr}		; (ldr lr, [sp], #4)
   12004:	e2811010 	add	r1, r1, #16
   12008:	e52de004 	push	{lr}		; (str lr, [sp, #-4]!)
   1200c:	ebfffc1e 	bl	1108c <Drawredblock16bpp>
   12010:	e49de004 	pop	{lr}		; (ldr lr, [sp], #4)
   12014:	e3a01f79 	mov	r1, #484	; 0x1e4
   12018:	e3a02f79 	mov	r2, #484	; 0x1e4
   1201c:	e52de004 	push	{lr}		; (str lr, [sp, #-4]!)
   12020:	ebfffc19 	bl	1108c <Drawredblock16bpp>
   12024:	e49de004 	pop	{lr}		; (ldr lr, [sp], #4)
   12028:	e3a01f79 	mov	r1, #484	; 0x1e4
   1202c:	e2822010 	add	r2, r2, #16
   12030:	e52de004 	push	{lr}		; (str lr, [sp, #-4]!)
   12034:	ebfffc14 	bl	1108c <Drawredblock16bpp>
   12038:	e49de004 	pop	{lr}		; (ldr lr, [sp], #4)
   1203c:	e3a01f79 	mov	r1, #484	; 0x1e4
   12040:	e2822010 	add	r2, r2, #16
   12044:	e52de004 	push	{lr}		; (str lr, [sp, #-4]!)
   12048:	ebfffc0f 	bl	1108c <Drawredblock16bpp>
   1204c:	e49de004 	pop	{lr}		; (ldr lr, [sp], #4)
   12050:	e3a01f79 	mov	r1, #484	; 0x1e4
   12054:	e2822010 	add	r2, r2, #16
   12058:	e52de004 	push	{lr}		; (str lr, [sp, #-4]!)
   1205c:	ebfffc0a 	bl	1108c <Drawredblock16bpp>
   12060:	e49de004 	pop	{lr}		; (ldr lr, [sp], #4)
   12064:	e3a01f79 	mov	r1, #484	; 0x1e4
   12068:	e2822010 	add	r2, r2, #16
   1206c:	e52de004 	push	{lr}		; (str lr, [sp, #-4]!)
   12070:	ebfffc05 	bl	1108c <Drawredblock16bpp>
   12074:	e49de004 	pop	{lr}		; (ldr lr, [sp], #4)
   12078:	e3a01f79 	mov	r1, #484	; 0x1e4
   1207c:	e2822010 	add	r2, r2, #16
   12080:	e52de004 	push	{lr}		; (str lr, [sp, #-4]!)
   12084:	ebfffc00 	bl	1108c <Drawredblock16bpp>
   12088:	e49de004 	pop	{lr}		; (ldr lr, [sp], #4)
   1208c:	e3a01f79 	mov	r1, #484	; 0x1e4
   12090:	e2822010 	add	r2, r2, #16
   12094:	e52de004 	push	{lr}		; (str lr, [sp, #-4]!)
   12098:	ebfffbfb 	bl	1108c <Drawredblock16bpp>
   1209c:	e49de004 	pop	{lr}		; (ldr lr, [sp], #4)
   120a0:	e2811010 	add	r1, r1, #16
   120a4:	e52de004 	push	{lr}		; (str lr, [sp, #-4]!)
   120a8:	ebfffbf7 	bl	1108c <Drawredblock16bpp>
   120ac:	e49de004 	pop	{lr}		; (ldr lr, [sp], #4)
   120b0:	e2811010 	add	r1, r1, #16
   120b4:	e52de004 	push	{lr}		; (str lr, [sp, #-4]!)
   120b8:	ebfffbf3 	bl	1108c <Drawredblock16bpp>
   120bc:	e49de004 	pop	{lr}		; (ldr lr, [sp], #4)
   120c0:	e2811010 	add	r1, r1, #16
   120c4:	e52de004 	push	{lr}		; (str lr, [sp, #-4]!)
   120c8:	ebfffbef 	bl	1108c <Drawredblock16bpp>
   120cc:	e49de004 	pop	{lr}		; (ldr lr, [sp], #4)
   120d0:	e2811010 	add	r1, r1, #16
   120d4:	e52de004 	push	{lr}		; (str lr, [sp, #-4]!)
   120d8:	ebfffbeb 	bl	1108c <Drawredblock16bpp>
   120dc:	e49de004 	pop	{lr}		; (ldr lr, [sp], #4)
   120e0:	e2811010 	add	r1, r1, #16
   120e4:	e52de004 	push	{lr}		; (str lr, [sp, #-4]!)
   120e8:	ebfffbe7 	bl	1108c <Drawredblock16bpp>
   120ec:	e49de004 	pop	{lr}		; (ldr lr, [sp], #4)
   120f0:	e2811010 	add	r1, r1, #16
   120f4:	e52de004 	push	{lr}		; (str lr, [sp, #-4]!)
   120f8:	ebfffbe3 	bl	1108c <Drawredblock16bpp>
   120fc:	e49de004 	pop	{lr}		; (ldr lr, [sp], #4)
   12100:	e2811010 	add	r1, r1, #16
   12104:	e3a01f99 	mov	r1, #612	; 0x264
   12108:	e3a02f79 	mov	r2, #484	; 0x1e4
   1210c:	e52de004 	push	{lr}		; (str lr, [sp, #-4]!)
   12110:	ebfffbdd 	bl	1108c <Drawredblock16bpp>
   12114:	e49de004 	pop	{lr}		; (ldr lr, [sp], #4)
   12118:	e2811010 	add	r1, r1, #16
   1211c:	e52de004 	push	{lr}		; (str lr, [sp, #-4]!)
   12120:	ebfffbd9 	bl	1108c <Drawredblock16bpp>
   12124:	e49de004 	pop	{lr}		; (ldr lr, [sp], #4)
   12128:	e2811010 	add	r1, r1, #16
   1212c:	e52de004 	push	{lr}		; (str lr, [sp, #-4]!)
   12130:	ebfffbd5 	bl	1108c <Drawredblock16bpp>
   12134:	e49de004 	pop	{lr}		; (ldr lr, [sp], #4)
   12138:	e2811010 	add	r1, r1, #16
   1213c:	e52de004 	push	{lr}		; (str lr, [sp, #-4]!)
   12140:	ebfffbd1 	bl	1108c <Drawredblock16bpp>
   12144:	e49de004 	pop	{lr}		; (ldr lr, [sp], #4)
   12148:	e2811010 	add	r1, r1, #16
   1214c:	e52de004 	push	{lr}		; (str lr, [sp, #-4]!)
   12150:	ebfffbcd 	bl	1108c <Drawredblock16bpp>
   12154:	e49de004 	pop	{lr}		; (ldr lr, [sp], #4)
   12158:	e2811010 	add	r1, r1, #16
   1215c:	e52de004 	push	{lr}		; (str lr, [sp, #-4]!)
   12160:	ebfffbc9 	bl	1108c <Drawredblock16bpp>
   12164:	e49de004 	pop	{lr}		; (ldr lr, [sp], #4)
   12168:	e2811010 	add	r1, r1, #16
   1216c:	e52de004 	push	{lr}		; (str lr, [sp, #-4]!)
   12170:	ebfffbc5 	bl	1108c <Drawredblock16bpp>
   12174:	e49de004 	pop	{lr}		; (ldr lr, [sp], #4)
   12178:	e3a01f99 	mov	r1, #612	; 0x264
   1217c:	e2822010 	add	r2, r2, #16
   12180:	e52de004 	push	{lr}		; (str lr, [sp, #-4]!)
   12184:	ebfffbc0 	bl	1108c <Drawredblock16bpp>
   12188:	e49de004 	pop	{lr}		; (ldr lr, [sp], #4)
   1218c:	e2811060 	add	r1, r1, #96	; 0x60
   12190:	e52de004 	push	{lr}		; (str lr, [sp, #-4]!)
   12194:	ebfffbbc 	bl	1108c <Drawredblock16bpp>
   12198:	e49de004 	pop	{lr}		; (ldr lr, [sp], #4)
   1219c:	e3a01f99 	mov	r1, #612	; 0x264
   121a0:	e2822010 	add	r2, r2, #16
   121a4:	e52de004 	push	{lr}		; (str lr, [sp, #-4]!)
   121a8:	ebfffbb7 	bl	1108c <Drawredblock16bpp>
   121ac:	e49de004 	pop	{lr}		; (ldr lr, [sp], #4)
   121b0:	e2811060 	add	r1, r1, #96	; 0x60
   121b4:	e52de004 	push	{lr}		; (str lr, [sp, #-4]!)
   121b8:	ebfffbb3 	bl	1108c <Drawredblock16bpp>
   121bc:	e49de004 	pop	{lr}		; (ldr lr, [sp], #4)
   121c0:	e3a01f99 	mov	r1, #612	; 0x264
   121c4:	e2822010 	add	r2, r2, #16
   121c8:	e52de004 	push	{lr}		; (str lr, [sp, #-4]!)
   121cc:	ebfffbae 	bl	1108c <Drawredblock16bpp>
   121d0:	e49de004 	pop	{lr}		; (ldr lr, [sp], #4)
   121d4:	e2811060 	add	r1, r1, #96	; 0x60
   121d8:	e52de004 	push	{lr}		; (str lr, [sp, #-4]!)
   121dc:	ebfffbaa 	bl	1108c <Drawredblock16bpp>
   121e0:	e49de004 	pop	{lr}		; (ldr lr, [sp], #4)
   121e4:	e3a01f99 	mov	r1, #612	; 0x264
   121e8:	e2822010 	add	r2, r2, #16
   121ec:	e52de004 	push	{lr}		; (str lr, [sp, #-4]!)
   121f0:	ebfffba5 	bl	1108c <Drawredblock16bpp>
   121f4:	e49de004 	pop	{lr}		; (ldr lr, [sp], #4)
   121f8:	e2811060 	add	r1, r1, #96	; 0x60
   121fc:	e52de004 	push	{lr}		; (str lr, [sp, #-4]!)
   12200:	ebfffba1 	bl	1108c <Drawredblock16bpp>
   12204:	e49de004 	pop	{lr}		; (ldr lr, [sp], #4)
   12208:	e3a01f99 	mov	r1, #612	; 0x264
   1220c:	e2822010 	add	r2, r2, #16
   12210:	e52de004 	push	{lr}		; (str lr, [sp, #-4]!)
   12214:	ebfffb9c 	bl	1108c <Drawredblock16bpp>
   12218:	e49de004 	pop	{lr}		; (ldr lr, [sp], #4)
   1221c:	e2811060 	add	r1, r1, #96	; 0x60
   12220:	e52de004 	push	{lr}		; (str lr, [sp, #-4]!)
   12224:	ebfffb98 	bl	1108c <Drawredblock16bpp>
   12228:	e49de004 	pop	{lr}		; (ldr lr, [sp], #4)
   1222c:	e3a01f99 	mov	r1, #612	; 0x264
   12230:	e2822010 	add	r2, r2, #16
   12234:	e52de004 	push	{lr}		; (str lr, [sp, #-4]!)
   12238:	ebfffb93 	bl	1108c <Drawredblock16bpp>
   1223c:	e49de004 	pop	{lr}		; (ldr lr, [sp], #4)
   12240:	e2811010 	add	r1, r1, #16
   12244:	e52de004 	push	{lr}		; (str lr, [sp, #-4]!)
   12248:	ebfffb8f 	bl	1108c <Drawredblock16bpp>
   1224c:	e49de004 	pop	{lr}		; (ldr lr, [sp], #4)
   12250:	e2811010 	add	r1, r1, #16
   12254:	e52de004 	push	{lr}		; (str lr, [sp, #-4]!)
   12258:	ebfffb8b 	bl	1108c <Drawredblock16bpp>
   1225c:	e49de004 	pop	{lr}		; (ldr lr, [sp], #4)
   12260:	e2811010 	add	r1, r1, #16
   12264:	e52de004 	push	{lr}		; (str lr, [sp, #-4]!)
   12268:	ebfffb87 	bl	1108c <Drawredblock16bpp>
   1226c:	e49de004 	pop	{lr}		; (ldr lr, [sp], #4)
   12270:	e2811010 	add	r1, r1, #16
   12274:	e52de004 	push	{lr}		; (str lr, [sp, #-4]!)
   12278:	ebfffb83 	bl	1108c <Drawredblock16bpp>
   1227c:	e49de004 	pop	{lr}		; (ldr lr, [sp], #4)
   12280:	e2811010 	add	r1, r1, #16
   12284:	e52de004 	push	{lr}		; (str lr, [sp, #-4]!)
   12288:	ebfffb7f 	bl	1108c <Drawredblock16bpp>
   1228c:	e49de004 	pop	{lr}		; (ldr lr, [sp], #4)
   12290:	e2811010 	add	r1, r1, #16
   12294:	e52de004 	push	{lr}		; (str lr, [sp, #-4]!)
   12298:	ebfffb7b 	bl	1108c <Drawredblock16bpp>
   1229c:	e49de004 	pop	{lr}		; (ldr lr, [sp], #4)
   122a0:	e3a01fb9 	mov	r1, #740	; 0x2e4
   122a4:	e3a02f79 	mov	r2, #484	; 0x1e4
   122a8:	e2811010 	add	r1, r1, #16
   122ac:	e52de004 	push	{lr}		; (str lr, [sp, #-4]!)
   122b0:	ebfffb75 	bl	1108c <Drawredblock16bpp>
   122b4:	e49de004 	pop	{lr}		; (ldr lr, [sp], #4)
   122b8:	e2811010 	add	r1, r1, #16
   122bc:	e52de004 	push	{lr}		; (str lr, [sp, #-4]!)
   122c0:	ebfffb71 	bl	1108c <Drawredblock16bpp>
   122c4:	e49de004 	pop	{lr}		; (ldr lr, [sp], #4)
   122c8:	e2811010 	add	r1, r1, #16
   122cc:	e52de004 	push	{lr}		; (str lr, [sp, #-4]!)
   122d0:	ebfffb6d 	bl	1108c <Drawredblock16bpp>
   122d4:	e49de004 	pop	{lr}		; (ldr lr, [sp], #4)
   122d8:	e2811010 	add	r1, r1, #16
   122dc:	e52de004 	push	{lr}		; (str lr, [sp, #-4]!)
   122e0:	ebfffb69 	bl	1108c <Drawredblock16bpp>
   122e4:	e49de004 	pop	{lr}		; (ldr lr, [sp], #4)
   122e8:	e2811010 	add	r1, r1, #16
   122ec:	e52de004 	push	{lr}		; (str lr, [sp, #-4]!)
   122f0:	ebfffb65 	bl	1108c <Drawredblock16bpp>
   122f4:	e49de004 	pop	{lr}		; (ldr lr, [sp], #4)
   122f8:	e3a01fb9 	mov	r1, #740	; 0x2e4
   122fc:	e2822010 	add	r2, r2, #16
   12300:	e52de004 	push	{lr}		; (str lr, [sp, #-4]!)
   12304:	ebfffb60 	bl	1108c <Drawredblock16bpp>
   12308:	e49de004 	pop	{lr}		; (ldr lr, [sp], #4)
   1230c:	e2811060 	add	r1, r1, #96	; 0x60
   12310:	e52de004 	push	{lr}		; (str lr, [sp, #-4]!)
   12314:	ebfffb5c 	bl	1108c <Drawredblock16bpp>
   12318:	e49de004 	pop	{lr}		; (ldr lr, [sp], #4)
   1231c:	e3a01fb9 	mov	r1, #740	; 0x2e4
   12320:	e2822010 	add	r2, r2, #16
   12324:	e52de004 	push	{lr}		; (str lr, [sp, #-4]!)
   12328:	ebfffb57 	bl	1108c <Drawredblock16bpp>
   1232c:	e49de004 	pop	{lr}		; (ldr lr, [sp], #4)
   12330:	e3a01fb9 	mov	r1, #740	; 0x2e4
   12334:	e2822010 	add	r2, r2, #16
   12338:	e2811010 	add	r1, r1, #16
   1233c:	e52de004 	push	{lr}		; (str lr, [sp, #-4]!)
   12340:	ebfffb51 	bl	1108c <Drawredblock16bpp>
   12344:	e49de004 	pop	{lr}		; (ldr lr, [sp], #4)
   12348:	e2811010 	add	r1, r1, #16
   1234c:	e52de004 	push	{lr}		; (str lr, [sp, #-4]!)
   12350:	ebfffb4d 	bl	1108c <Drawredblock16bpp>
   12354:	e49de004 	pop	{lr}		; (ldr lr, [sp], #4)
   12358:	e2811010 	add	r1, r1, #16
   1235c:	e52de004 	push	{lr}		; (str lr, [sp, #-4]!)
   12360:	ebfffb49 	bl	1108c <Drawredblock16bpp>
   12364:	e49de004 	pop	{lr}		; (ldr lr, [sp], #4)
   12368:	e2811010 	add	r1, r1, #16
   1236c:	e52de004 	push	{lr}		; (str lr, [sp, #-4]!)
   12370:	ebfffb45 	bl	1108c <Drawredblock16bpp>
   12374:	e49de004 	pop	{lr}		; (ldr lr, [sp], #4)
   12378:	e2811010 	add	r1, r1, #16
   1237c:	e52de004 	push	{lr}		; (str lr, [sp, #-4]!)
   12380:	ebfffb41 	bl	1108c <Drawredblock16bpp>
   12384:	e49de004 	pop	{lr}		; (ldr lr, [sp], #4)
   12388:	e3a01fb9 	mov	r1, #740	; 0x2e4
   1238c:	e2822010 	add	r2, r2, #16
   12390:	e2811060 	add	r1, r1, #96	; 0x60
   12394:	e52de004 	push	{lr}		; (str lr, [sp, #-4]!)
   12398:	ebfffb3b 	bl	1108c <Drawredblock16bpp>
   1239c:	e49de004 	pop	{lr}		; (ldr lr, [sp], #4)
   123a0:	e3a01fb9 	mov	r1, #740	; 0x2e4
   123a4:	e2822010 	add	r2, r2, #16
   123a8:	e52de004 	push	{lr}		; (str lr, [sp, #-4]!)
   123ac:	ebfffb36 	bl	1108c <Drawredblock16bpp>
   123b0:	e49de004 	pop	{lr}		; (ldr lr, [sp], #4)
   123b4:	e2811060 	add	r1, r1, #96	; 0x60
   123b8:	e52de004 	push	{lr}		; (str lr, [sp, #-4]!)
   123bc:	ebfffb32 	bl	1108c <Drawredblock16bpp>
   123c0:	e49de004 	pop	{lr}		; (ldr lr, [sp], #4)
   123c4:	e3a01fb9 	mov	r1, #740	; 0x2e4
   123c8:	e2822010 	add	r2, r2, #16
   123cc:	e2811010 	add	r1, r1, #16
   123d0:	e52de004 	push	{lr}		; (str lr, [sp, #-4]!)
   123d4:	ebfffb2c 	bl	1108c <Drawredblock16bpp>
   123d8:	e49de004 	pop	{lr}		; (ldr lr, [sp], #4)
   123dc:	e2811010 	add	r1, r1, #16
   123e0:	e52de004 	push	{lr}		; (str lr, [sp, #-4]!)
   123e4:	ebfffb28 	bl	1108c <Drawredblock16bpp>
   123e8:	e49de004 	pop	{lr}		; (ldr lr, [sp], #4)
   123ec:	e2811010 	add	r1, r1, #16
   123f0:	e52de004 	push	{lr}		; (str lr, [sp, #-4]!)
   123f4:	ebfffb24 	bl	1108c <Drawredblock16bpp>
   123f8:	e49de004 	pop	{lr}		; (ldr lr, [sp], #4)
   123fc:	e2811010 	add	r1, r1, #16
   12400:	e52de004 	push	{lr}		; (str lr, [sp, #-4]!)
   12404:	ebfffb20 	bl	1108c <Drawredblock16bpp>
   12408:	e49de004 	pop	{lr}		; (ldr lr, [sp], #4)
   1240c:	e2811010 	add	r1, r1, #16
   12410:	e52de004 	push	{lr}		; (str lr, [sp, #-4]!)
   12414:	ebfffb1c 	bl	1108c <Drawredblock16bpp>
   12418:	e49de004 	pop	{lr}		; (ldr lr, [sp], #4)
   1241c:	e3a01fd9 	mov	r1, #868	; 0x364
   12420:	e3a02f79 	mov	r2, #484	; 0x1e4
   12424:	e52de004 	push	{lr}		; (str lr, [sp, #-4]!)
   12428:	ebfffb17 	bl	1108c <Drawredblock16bpp>
   1242c:	e49de004 	pop	{lr}		; (ldr lr, [sp], #4)
   12430:	e2811010 	add	r1, r1, #16
   12434:	e52de004 	push	{lr}		; (str lr, [sp, #-4]!)
   12438:	ebfffb13 	bl	1108c <Drawredblock16bpp>
   1243c:	e49de004 	pop	{lr}		; (ldr lr, [sp], #4)
   12440:	e2811010 	add	r1, r1, #16
   12444:	e52de004 	push	{lr}		; (str lr, [sp, #-4]!)
   12448:	ebfffb0f 	bl	1108c <Drawredblock16bpp>
   1244c:	e49de004 	pop	{lr}		; (ldr lr, [sp], #4)
   12450:	e2811010 	add	r1, r1, #16
   12454:	e52de004 	push	{lr}		; (str lr, [sp, #-4]!)
   12458:	ebfffb0b 	bl	1108c <Drawredblock16bpp>
   1245c:	e49de004 	pop	{lr}		; (ldr lr, [sp], #4)
   12460:	e2811010 	add	r1, r1, #16
   12464:	e52de004 	push	{lr}		; (str lr, [sp, #-4]!)
   12468:	ebfffb07 	bl	1108c <Drawredblock16bpp>
   1246c:	e49de004 	pop	{lr}		; (ldr lr, [sp], #4)
   12470:	e2811010 	add	r1, r1, #16
   12474:	e52de004 	push	{lr}		; (str lr, [sp, #-4]!)
   12478:	ebfffb03 	bl	1108c <Drawredblock16bpp>
   1247c:	e49de004 	pop	{lr}		; (ldr lr, [sp], #4)
   12480:	e2811010 	add	r1, r1, #16
   12484:	e52de004 	push	{lr}		; (str lr, [sp, #-4]!)
   12488:	ebfffaff 	bl	1108c <Drawredblock16bpp>
   1248c:	e49de004 	pop	{lr}		; (ldr lr, [sp], #4)
   12490:	e3a01fd9 	mov	r1, #868	; 0x364
   12494:	e2822010 	add	r2, r2, #16
   12498:	e2811030 	add	r1, r1, #48	; 0x30
   1249c:	e52de004 	push	{lr}		; (str lr, [sp, #-4]!)
   124a0:	ebfffaf9 	bl	1108c <Drawredblock16bpp>
   124a4:	e49de004 	pop	{lr}		; (ldr lr, [sp], #4)
   124a8:	e2822010 	add	r2, r2, #16
   124ac:	e52de004 	push	{lr}		; (str lr, [sp, #-4]!)
   124b0:	ebfffaf5 	bl	1108c <Drawredblock16bpp>
   124b4:	e49de004 	pop	{lr}		; (ldr lr, [sp], #4)
   124b8:	e2822010 	add	r2, r2, #16
   124bc:	e52de004 	push	{lr}		; (str lr, [sp, #-4]!)
   124c0:	ebfffaf1 	bl	1108c <Drawredblock16bpp>
   124c4:	e49de004 	pop	{lr}		; (ldr lr, [sp], #4)
   124c8:	e2822010 	add	r2, r2, #16
   124cc:	e52de004 	push	{lr}		; (str lr, [sp, #-4]!)
   124d0:	ebfffaed 	bl	1108c <Drawredblock16bpp>
   124d4:	e49de004 	pop	{lr}		; (ldr lr, [sp], #4)
   124d8:	e2822010 	add	r2, r2, #16
   124dc:	e52de004 	push	{lr}		; (str lr, [sp, #-4]!)
   124e0:	ebfffae9 	bl	1108c <Drawredblock16bpp>
   124e4:	e49de004 	pop	{lr}		; (ldr lr, [sp], #4)
   124e8:	e2822010 	add	r2, r2, #16
   124ec:	e52de004 	push	{lr}		; (str lr, [sp, #-4]!)
   124f0:	ebfffae5 	bl	1108c <Drawredblock16bpp>
   124f4:	e49de004 	pop	{lr}		; (ldr lr, [sp], #4)
   124f8:	e8bd07ff 	pop	{r0, r1, r2, r3, r4, r5, r6, r7, r8, r9, sl}
   124fc:	e12fff1e 	bx	lr

00012500 <DrawCharK>:
   12500:	e92d41f0 	push	{r4, r5, r6, r7, r8, lr}
   12504:	e59f45a8 	ldr	r4, [pc, #1448]	; 12ab4 <rowLoop15$+0x20>
   12508:	e3a0004b 	mov	r0, #75	; 0x4b
   1250c:	e0844200 	add	r4, r4, r0, lsl #4
   12510:	e3a06082 	mov	r6, #130	; 0x82

00012514 <charLoop$>:
   12514:	e3a05f4b 	mov	r5, #300	; 0x12c
   12518:	e3a08001 	mov	r8, #1
   1251c:	e4d47001 	ldrb	r7, [r4], #1

00012520 <rowLoop$>:
   12520:	e1170008 	tst	r7, r8
   12524:	0a000005 	beq	12540 <noPixel$>
   12528:	e1a00005 	mov	r0, r5
   1252c:	e1a01006 	mov	r1, r6
   12530:	e3590000 	cmp	r9, #0
   12534:	059f257c 	ldreq	r2, [pc, #1404]	; 12ab8 <rowLoop15$+0x24>
   12538:	13a0201f 	movne	r2, #31
   1253c:	ebfff6b3 	bl	10010 <DrawPixel>

00012540 <noPixel$>:
   12540:	e2855001 	add	r5, r5, #1
   12544:	e1a08088 	lsl	r8, r8, #1
   12548:	e3180c01 	tst	r8, #256	; 0x100
   1254c:	0afffff3 	beq	12520 <rowLoop$>
   12550:	e2866001 	add	r6, r6, #1
   12554:	e314000f 	tst	r4, #15
   12558:	1affffed 	bne	12514 <charLoop$>
   1255c:	e8bd81f0 	pop	{r4, r5, r6, r7, r8, pc}

00012560 <DrawCharE>:
   12560:	e92d41f0 	push	{r4, r5, r6, r7, r8, lr}
   12564:	e59f4548 	ldr	r4, [pc, #1352]	; 12ab4 <rowLoop15$+0x20>
   12568:	e3a00045 	mov	r0, #69	; 0x45
   1256c:	e0844200 	add	r4, r4, r0, lsl #4
   12570:	e3a06082 	mov	r6, #130	; 0x82

00012574 <charLoop2$>:
   12574:	e3a05064 	mov	r5, #100	; 0x64
   12578:	e28550d2 	add	r5, r5, #210	; 0xd2
   1257c:	e3a08001 	mov	r8, #1
   12580:	e4d47001 	ldrb	r7, [r4], #1

00012584 <rowLoop2$>:
   12584:	e1170008 	tst	r7, r8
   12588:	0a000005 	beq	125a4 <noPixel2$>
   1258c:	e1a00005 	mov	r0, r5
   12590:	e1a01006 	mov	r1, r6
   12594:	e3590000 	cmp	r9, #0
   12598:	059f2518 	ldreq	r2, [pc, #1304]	; 12ab8 <rowLoop15$+0x24>
   1259c:	13a0201f 	movne	r2, #31
   125a0:	ebfff69a 	bl	10010 <DrawPixel>

000125a4 <noPixel2$>:
   125a4:	e2855001 	add	r5, r5, #1
   125a8:	e1a08088 	lsl	r8, r8, #1
   125ac:	e3180c01 	tst	r8, #256	; 0x100
   125b0:	0afffff3 	beq	12584 <rowLoop2$>
   125b4:	e2866001 	add	r6, r6, #1
   125b8:	e314000f 	tst	r4, #15
   125bc:	1affffec 	bne	12574 <charLoop2$>
   125c0:	e8bd81f0 	pop	{r4, r5, r6, r7, r8, pc}

000125c4 <DrawCharY>:
   125c4:	e92d41f0 	push	{r4, r5, r6, r7, r8, lr}
   125c8:	e59f44e4 	ldr	r4, [pc, #1252]	; 12ab4 <rowLoop15$+0x20>
   125cc:	e3a00059 	mov	r0, #89	; 0x59
   125d0:	e0844200 	add	r4, r4, r0, lsl #4
   125d4:	e3a06082 	mov	r6, #130	; 0x82

000125d8 <charLoop3$>:
   125d8:	e3a05d05 	mov	r5, #320	; 0x140
   125dc:	e3a08001 	mov	r8, #1
   125e0:	e4d47001 	ldrb	r7, [r4], #1

000125e4 <rowLoop3$>:
   125e4:	e1170008 	tst	r7, r8
   125e8:	0a000005 	beq	12604 <noPixel3$>
   125ec:	e1a00005 	mov	r0, r5
   125f0:	e1a01006 	mov	r1, r6
   125f4:	e3590000 	cmp	r9, #0
   125f8:	059f24b8 	ldreq	r2, [pc, #1208]	; 12ab8 <rowLoop15$+0x24>
   125fc:	13a0201f 	movne	r2, #31
   12600:	ebfff682 	bl	10010 <DrawPixel>

00012604 <noPixel3$>:
   12604:	e2855001 	add	r5, r5, #1
   12608:	e1a08088 	lsl	r8, r8, #1
   1260c:	e3180c01 	tst	r8, #256	; 0x100
   12610:	0afffff3 	beq	125e4 <rowLoop3$>
   12614:	e2866001 	add	r6, r6, #1
   12618:	e314000f 	tst	r4, #15
   1261c:	1affffed 	bne	125d8 <charLoop3$>
   12620:	e8bd81f0 	pop	{r4, r5, r6, r7, r8, pc}

00012624 <DrawCharS>:
   12624:	e92d41f0 	push	{r4, r5, r6, r7, r8, lr}
   12628:	e59f4484 	ldr	r4, [pc, #1156]	; 12ab4 <rowLoop15$+0x20>
   1262c:	e3a00053 	mov	r0, #83	; 0x53
   12630:	e0844200 	add	r4, r4, r0, lsl #4
   12634:	e3a06082 	mov	r6, #130	; 0x82

00012638 <charLoop4$>:
   12638:	e3a05064 	mov	r5, #100	; 0x64
   1263c:	e28550e6 	add	r5, r5, #230	; 0xe6
   12640:	e3a08001 	mov	r8, #1
   12644:	e4d47001 	ldrb	r7, [r4], #1

00012648 <rowLoop4$>:
   12648:	e1170008 	tst	r7, r8
   1264c:	0a000005 	beq	12668 <noPixel4$>
   12650:	e1a00005 	mov	r0, r5
   12654:	e1a01006 	mov	r1, r6
   12658:	e3590000 	cmp	r9, #0
   1265c:	059f2454 	ldreq	r2, [pc, #1108]	; 12ab8 <rowLoop15$+0x24>
   12660:	13a0201f 	movne	r2, #31
   12664:	ebfff669 	bl	10010 <DrawPixel>

00012668 <noPixel4$>:
   12668:	e2855001 	add	r5, r5, #1
   1266c:	e1a08088 	lsl	r8, r8, #1
   12670:	e3180c01 	tst	r8, #256	; 0x100
   12674:	0afffff3 	beq	12648 <rowLoop4$>
   12678:	e2866001 	add	r6, r6, #1
   1267c:	e314000f 	tst	r4, #15
   12680:	1affffec 	bne	12638 <charLoop4$>
   12684:	e8bd81f0 	pop	{r4, r5, r6, r7, r8, pc}

00012688 <DrawCharSPC>:
   12688:	e92d41f0 	push	{r4, r5, r6, r7, r8, lr}
   1268c:	e59f4420 	ldr	r4, [pc, #1056]	; 12ab4 <rowLoop15$+0x20>
   12690:	e3a0003a 	mov	r0, #58	; 0x3a
   12694:	e0844200 	add	r4, r4, r0, lsl #4
   12698:	e3a06082 	mov	r6, #130	; 0x82

0001269c <charLoop5$>:
   1269c:	e3a0506e 	mov	r5, #110	; 0x6e
   126a0:	e28550e6 	add	r5, r5, #230	; 0xe6
   126a4:	e3a08001 	mov	r8, #1
   126a8:	e4d47001 	ldrb	r7, [r4], #1

000126ac <rowLoop5$>:
   126ac:	e1170008 	tst	r7, r8
   126b0:	0a000005 	beq	126cc <noPixel5$>
   126b4:	e1a00005 	mov	r0, r5
   126b8:	e1a01006 	mov	r1, r6
   126bc:	e3590000 	cmp	r9, #0
   126c0:	059f23f0 	ldreq	r2, [pc, #1008]	; 12ab8 <rowLoop15$+0x24>
   126c4:	13a0201f 	movne	r2, #31
   126c8:	ebfff650 	bl	10010 <DrawPixel>

000126cc <noPixel5$>:
   126cc:	e2855001 	add	r5, r5, #1
   126d0:	e1a08088 	lsl	r8, r8, #1
   126d4:	e3180c01 	tst	r8, #256	; 0x100
   126d8:	0afffff3 	beq	126ac <rowLoop5$>
   126dc:	e2866001 	add	r6, r6, #1
   126e0:	e314000f 	tst	r4, #15
   126e4:	1affffec 	bne	1269c <charLoop5$>
   126e8:	e8bd81f0 	pop	{r4, r5, r6, r7, r8, pc}

000126ec <DrawCharM>:
   126ec:	e92d41f0 	push	{r4, r5, r6, r7, r8, lr}
   126f0:	e59f43bc 	ldr	r4, [pc, #956]	; 12ab4 <rowLoop15$+0x20>
   126f4:	e3a0004d 	mov	r0, #77	; 0x4d
   126f8:	e0844200 	add	r4, r4, r0, lsl #4
   126fc:	e3a06082 	mov	r6, #130	; 0x82

00012700 <charLoop6$>:
   12700:	e3a05e19 	mov	r5, #400	; 0x190
   12704:	e2855064 	add	r5, r5, #100	; 0x64
   12708:	e3a08001 	mov	r8, #1
   1270c:	e4d47001 	ldrb	r7, [r4], #1

00012710 <rowLoop6$>:
   12710:	e1170008 	tst	r7, r8
   12714:	0a000005 	beq	12730 <noPixel6$>
   12718:	e1a00005 	mov	r0, r5
   1271c:	e1a01006 	mov	r1, r6
   12720:	e3590000 	cmp	r9, #0
   12724:	059f238c 	ldreq	r2, [pc, #908]	; 12ab8 <rowLoop15$+0x24>
   12728:	13a0201f 	movne	r2, #31
   1272c:	ebfff637 	bl	10010 <DrawPixel>

00012730 <noPixel6$>:
   12730:	e2855001 	add	r5, r5, #1
   12734:	e1a08088 	lsl	r8, r8, #1
   12738:	e3180c01 	tst	r8, #256	; 0x100
   1273c:	0afffff3 	beq	12710 <rowLoop6$>
   12740:	e2866001 	add	r6, r6, #1
   12744:	e314000f 	tst	r4, #15
   12748:	1affffec 	bne	12700 <charLoop6$>
   1274c:	e8bd81f0 	pop	{r4, r5, r6, r7, r8, pc}

00012750 <DrawCharO>:
   12750:	e92d41f0 	push	{r4, r5, r6, r7, r8, lr}
   12754:	e59f4358 	ldr	r4, [pc, #856]	; 12ab4 <rowLoop15$+0x20>
   12758:	e3a0004f 	mov	r0, #79	; 0x4f
   1275c:	e0844200 	add	r4, r4, r0, lsl #4
   12760:	e3a06082 	mov	r6, #130	; 0x82

00012764 <charLoop7$>:
   12764:	e3a05e19 	mov	r5, #400	; 0x190
   12768:	e285506e 	add	r5, r5, #110	; 0x6e
   1276c:	e3a08001 	mov	r8, #1
   12770:	e4d47001 	ldrb	r7, [r4], #1

00012774 <rowLoop7$>:
   12774:	e1170008 	tst	r7, r8
   12778:	0a000005 	beq	12794 <noPixel7$>
   1277c:	e1a00005 	mov	r0, r5
   12780:	e1a01006 	mov	r1, r6
   12784:	e3590000 	cmp	r9, #0
   12788:	059f2328 	ldreq	r2, [pc, #808]	; 12ab8 <rowLoop15$+0x24>
   1278c:	13a0201f 	movne	r2, #31
   12790:	ebfff61e 	bl	10010 <DrawPixel>

00012794 <noPixel7$>:
   12794:	e2855001 	add	r5, r5, #1
   12798:	e1a08088 	lsl	r8, r8, #1
   1279c:	e3180c01 	tst	r8, #256	; 0x100
   127a0:	0afffff3 	beq	12774 <rowLoop7$>
   127a4:	e2866001 	add	r6, r6, #1
   127a8:	e314000f 	tst	r4, #15
   127ac:	1affffec 	bne	12764 <charLoop7$>
   127b0:	e8bd81f0 	pop	{r4, r5, r6, r7, r8, pc}

000127b4 <DrawCharV>:
   127b4:	e92d41f0 	push	{r4, r5, r6, r7, r8, lr}
   127b8:	e59f42f4 	ldr	r4, [pc, #756]	; 12ab4 <rowLoop15$+0x20>
   127bc:	e3a00056 	mov	r0, #86	; 0x56
   127c0:	e0844200 	add	r4, r4, r0, lsl #4
   127c4:	e3a06082 	mov	r6, #130	; 0x82

000127c8 <charLoop8$>:
   127c8:	e3a05e19 	mov	r5, #400	; 0x190
   127cc:	e2855078 	add	r5, r5, #120	; 0x78
   127d0:	e3a08001 	mov	r8, #1
   127d4:	e4d47001 	ldrb	r7, [r4], #1

000127d8 <rowLoop8$>:
   127d8:	e1170008 	tst	r7, r8
   127dc:	0a000005 	beq	127f8 <noPixel8$>
   127e0:	e1a00005 	mov	r0, r5
   127e4:	e1a01006 	mov	r1, r6
   127e8:	e3590000 	cmp	r9, #0
   127ec:	059f22c4 	ldreq	r2, [pc, #708]	; 12ab8 <rowLoop15$+0x24>
   127f0:	13a0201f 	movne	r2, #31
   127f4:	ebfff605 	bl	10010 <DrawPixel>

000127f8 <noPixel8$>:
   127f8:	e2855001 	add	r5, r5, #1
   127fc:	e1a08088 	lsl	r8, r8, #1
   12800:	e3180c01 	tst	r8, #256	; 0x100
   12804:	0afffff3 	beq	127d8 <rowLoop8$>
   12808:	e2866001 	add	r6, r6, #1
   1280c:	e314000f 	tst	r4, #15
   12810:	1affffec 	bne	127c8 <charLoop8$>
   12814:	e8bd81f0 	pop	{r4, r5, r6, r7, r8, pc}

00012818 <DrawCharE2>:
   12818:	e92d41f0 	push	{r4, r5, r6, r7, r8, lr}
   1281c:	e59f4290 	ldr	r4, [pc, #656]	; 12ab4 <rowLoop15$+0x20>
   12820:	e3a00045 	mov	r0, #69	; 0x45
   12824:	e0844200 	add	r4, r4, r0, lsl #4
   12828:	e3a06082 	mov	r6, #130	; 0x82

0001282c <charLoop9$>:
   1282c:	e3a05e19 	mov	r5, #400	; 0x190
   12830:	e2855082 	add	r5, r5, #130	; 0x82
   12834:	e3a08001 	mov	r8, #1
   12838:	e4d47001 	ldrb	r7, [r4], #1

0001283c <rowLoop9$>:
   1283c:	e1170008 	tst	r7, r8
   12840:	0a000005 	beq	1285c <noPixel9$>
   12844:	e1a00005 	mov	r0, r5
   12848:	e1a01006 	mov	r1, r6
   1284c:	e3590000 	cmp	r9, #0
   12850:	059f2260 	ldreq	r2, [pc, #608]	; 12ab8 <rowLoop15$+0x24>
   12854:	13a0201f 	movne	r2, #31
   12858:	ebfff5ec 	bl	10010 <DrawPixel>

0001285c <noPixel9$>:
   1285c:	e2855001 	add	r5, r5, #1
   12860:	e1a08088 	lsl	r8, r8, #1
   12864:	e3180c01 	tst	r8, #256	; 0x100
   12868:	0afffff3 	beq	1283c <rowLoop9$>
   1286c:	e2866001 	add	r6, r6, #1
   12870:	e314000f 	tst	r4, #15
   12874:	1affffec 	bne	1282c <charLoop9$>
   12878:	e8bd81f0 	pop	{r4, r5, r6, r7, r8, pc}

0001287c <DrawCharS2>:
   1287c:	e92d41f0 	push	{r4, r5, r6, r7, r8, lr}
   12880:	e59f422c 	ldr	r4, [pc, #556]	; 12ab4 <rowLoop15$+0x20>
   12884:	e3a00053 	mov	r0, #83	; 0x53
   12888:	e0844200 	add	r4, r4, r0, lsl #4
   1288c:	e3a06082 	mov	r6, #130	; 0x82

00012890 <charLoop10$>:
   12890:	e3a05e19 	mov	r5, #400	; 0x190
   12894:	e285508c 	add	r5, r5, #140	; 0x8c
   12898:	e3a08001 	mov	r8, #1
   1289c:	e4d47001 	ldrb	r7, [r4], #1

000128a0 <rowLoop10$>:
   128a0:	e1170008 	tst	r7, r8
   128a4:	0a000005 	beq	128c0 <noPixel10$>
   128a8:	e1a00005 	mov	r0, r5
   128ac:	e1a01006 	mov	r1, r6
   128b0:	e3590000 	cmp	r9, #0
   128b4:	059f21fc 	ldreq	r2, [pc, #508]	; 12ab8 <rowLoop15$+0x24>
   128b8:	13a0201f 	movne	r2, #31
   128bc:	ebfff5d3 	bl	10010 <DrawPixel>

000128c0 <noPixel10$>:
   128c0:	e2855001 	add	r5, r5, #1
   128c4:	e1a08088 	lsl	r8, r8, #1
   128c8:	e3180c01 	tst	r8, #256	; 0x100
   128cc:	0afffff3 	beq	128a0 <rowLoop10$>
   128d0:	e2866001 	add	r6, r6, #1
   128d4:	e314000f 	tst	r4, #15
   128d8:	1affffec 	bne	12890 <charLoop10$>
   128dc:	e8bd81f0 	pop	{r4, r5, r6, r7, r8, pc}

000128e0 <DrawCharSPC2>:
   128e0:	e92d41f0 	push	{r4, r5, r6, r7, r8, lr}
   128e4:	e59f41c8 	ldr	r4, [pc, #456]	; 12ab4 <rowLoop15$+0x20>
   128e8:	e3a0003a 	mov	r0, #58	; 0x3a
   128ec:	e0844200 	add	r4, r4, r0, lsl #4
   128f0:	e3a06082 	mov	r6, #130	; 0x82

000128f4 <charLoop11$>:
   128f4:	e3a05f69 	mov	r5, #420	; 0x1a4
   128f8:	e2855082 	add	r5, r5, #130	; 0x82
   128fc:	e3a08001 	mov	r8, #1
   12900:	e4d47001 	ldrb	r7, [r4], #1

00012904 <rowLoop11$>:
   12904:	e1170008 	tst	r7, r8
   12908:	0a000005 	beq	12924 <noPixel11$>
   1290c:	e1a00005 	mov	r0, r5
   12910:	e1a01006 	mov	r1, r6
   12914:	e3590000 	cmp	r9, #0
   12918:	059f2198 	ldreq	r2, [pc, #408]	; 12ab8 <rowLoop15$+0x24>
   1291c:	13a0201f 	movne	r2, #31
   12920:	ebfff5ba 	bl	10010 <DrawPixel>

00012924 <noPixel11$>:
   12924:	e2855001 	add	r5, r5, #1
   12928:	e1a08088 	lsl	r8, r8, #1
   1292c:	e3180c01 	tst	r8, #256	; 0x100
   12930:	0afffff3 	beq	12904 <rowLoop11$>
   12934:	e2866001 	add	r6, r6, #1
   12938:	e314000f 	tst	r4, #15
   1293c:	1affffec 	bne	128f4 <charLoop11$>
   12940:	e8bd81f0 	pop	{r4, r5, r6, r7, r8, pc}

00012944 <DrawCharKNUM10>:
   12944:	e92d41f0 	push	{r4, r5, r6, r7, r8, lr}
   12948:	e59f4164 	ldr	r4, [pc, #356]	; 12ab4 <rowLoop15$+0x20>
   1294c:	e3a00030 	mov	r0, #48	; 0x30
   12950:	e0844200 	add	r4, r4, r0, lsl #4
   12954:	e3a06082 	mov	r6, #130	; 0x82

00012958 <charLoop12$>:
   12958:	e3a050e6 	mov	r5, #230	; 0xe6
   1295c:	e2855082 	add	r5, r5, #130	; 0x82
   12960:	e3a08001 	mov	r8, #1
   12964:	e4d47001 	ldrb	r7, [r4], #1

00012968 <rowLoop12$>:
   12968:	e1170008 	tst	r7, r8
   1296c:	0a000005 	beq	12988 <noPixel12$>
   12970:	e1a00005 	mov	r0, r5
   12974:	e1a01006 	mov	r1, r6
   12978:	e3590000 	cmp	r9, #0
   1297c:	059f2134 	ldreq	r2, [pc, #308]	; 12ab8 <rowLoop15$+0x24>
   12980:	13a0201f 	movne	r2, #31
   12984:	ebfff5a1 	bl	10010 <DrawPixel>

00012988 <noPixel12$>:
   12988:	e2855001 	add	r5, r5, #1
   1298c:	e1a08088 	lsl	r8, r8, #1
   12990:	e3180c01 	tst	r8, #256	; 0x100
   12994:	0afffff3 	beq	12968 <rowLoop12$>
   12998:	e2866001 	add	r6, r6, #1
   1299c:	e314000f 	tst	r4, #15
   129a0:	1affffec 	bne	12958 <charLoop12$>
   129a4:	e8bd81f0 	pop	{r4, r5, r6, r7, r8, pc}

000129a8 <DrawCharKNUM11>:
   129a8:	e92d41f0 	push	{r4, r5, r6, r7, r8, lr}
   129ac:	e59f4100 	ldr	r4, [pc, #256]	; 12ab4 <rowLoop15$+0x20>
   129b0:	e3a00031 	mov	r0, #49	; 0x31
   129b4:	e0844200 	add	r4, r4, r0, lsl #4
   129b8:	e3a06082 	mov	r6, #130	; 0x82

000129bc <charLoop13$>:
   129bc:	e3a050e6 	mov	r5, #230	; 0xe6
   129c0:	e2855082 	add	r5, r5, #130	; 0x82
   129c4:	e3a08001 	mov	r8, #1
   129c8:	e4d47001 	ldrb	r7, [r4], #1

000129cc <rowLoop13$>:
   129cc:	e1170008 	tst	r7, r8
   129d0:	0a000005 	beq	129ec <noPixel13$>
   129d4:	e1a00005 	mov	r0, r5
   129d8:	e1a01006 	mov	r1, r6
   129dc:	e3590000 	cmp	r9, #0
   129e0:	059f20d0 	ldreq	r2, [pc, #208]	; 12ab8 <rowLoop15$+0x24>
   129e4:	13a0201f 	movne	r2, #31
   129e8:	ebfff588 	bl	10010 <DrawPixel>

000129ec <noPixel13$>:
   129ec:	e2855001 	add	r5, r5, #1
   129f0:	e1a08088 	lsl	r8, r8, #1
   129f4:	e3180c01 	tst	r8, #256	; 0x100
   129f8:	0afffff3 	beq	129cc <rowLoop13$>
   129fc:	e2866001 	add	r6, r6, #1
   12a00:	e314000f 	tst	r4, #15
   12a04:	1affffec 	bne	129bc <charLoop13$>
   12a08:	e8bd81f0 	pop	{r4, r5, r6, r7, r8, pc}

00012a0c <DrawCharKNUM12>:
   12a0c:	e92d41f0 	push	{r4, r5, r6, r7, r8, lr}
   12a10:	e59f409c 	ldr	r4, [pc, #156]	; 12ab4 <rowLoop15$+0x20>
   12a14:	e3a00032 	mov	r0, #50	; 0x32
   12a18:	e0844200 	add	r4, r4, r0, lsl #4
   12a1c:	e3a06082 	mov	r6, #130	; 0x82

00012a20 <charLoop14$>:
   12a20:	e3a050e6 	mov	r5, #230	; 0xe6
   12a24:	e2855082 	add	r5, r5, #130	; 0x82
   12a28:	e3a08001 	mov	r8, #1
   12a2c:	e4d47001 	ldrb	r7, [r4], #1

00012a30 <rowLoop14$>:
   12a30:	e1170008 	tst	r7, r8
   12a34:	0a000005 	beq	12a50 <noPixel14$>
   12a38:	e1a00005 	mov	r0, r5
   12a3c:	e1a01006 	mov	r1, r6
   12a40:	e3590000 	cmp	r9, #0
   12a44:	059f206c 	ldreq	r2, [pc, #108]	; 12ab8 <rowLoop15$+0x24>
   12a48:	13a0201f 	movne	r2, #31
   12a4c:	ebfff56f 	bl	10010 <DrawPixel>

00012a50 <noPixel14$>:
   12a50:	e2855001 	add	r5, r5, #1
   12a54:	e1a08088 	lsl	r8, r8, #1
   12a58:	e3180c01 	tst	r8, #256	; 0x100
   12a5c:	0afffff3 	beq	12a30 <rowLoop14$>
   12a60:	e2866001 	add	r6, r6, #1
   12a64:	e314000f 	tst	r4, #15
   12a68:	1affffec 	bne	12a20 <charLoop14$>
   12a6c:	e8bd81f0 	pop	{r4, r5, r6, r7, r8, pc}

00012a70 <DrawCharKNUM13>:
   12a70:	e92d41f0 	push	{r4, r5, r6, r7, r8, lr}
   12a74:	e59f4038 	ldr	r4, [pc, #56]	; 12ab4 <rowLoop15$+0x20>
   12a78:	e3a00033 	mov	r0, #51	; 0x33
   12a7c:	e0844200 	add	r4, r4, r0, lsl #4
   12a80:	e3a06082 	mov	r6, #130	; 0x82

00012a84 <charLoop15$>:
   12a84:	e3a050e6 	mov	r5, #230	; 0xe6
   12a88:	e2855082 	add	r5, r5, #130	; 0x82
   12a8c:	e3a08001 	mov	r8, #1
   12a90:	e4d47001 	ldrb	r7, [r4], #1

00012a94 <rowLoop15$>:
   12a94:	e1170008 	tst	r7, r8
   12a98:	0a000008 	beq	12ac0 <noPixel15$>
   12a9c:	e1a00005 	mov	r0, r5
   12aa0:	e1a01006 	mov	r1, r6
   12aa4:	e3590000 	cmp	r9, #0
   12aa8:	059f2008 	ldreq	r2, [pc, #8]	; 12ab8 <rowLoop15$+0x24>
   12aac:	13a0201f 	movne	r2, #31
   12ab0:	ebfff556 	bl	10010 <DrawPixel>
   12ab4:	0000b000 	.word	0x0000b000
   12ab8:	0000ffff 	.word	0x0000ffff
   12abc:	e320f000 	nop	{0}

00012ac0 <noPixel15$>:
   12ac0:	e2855001 	add	r5, r5, #1
   12ac4:	e1a08088 	lsl	r8, r8, #1
   12ac8:	e3180c01 	tst	r8, #256	; 0x100
   12acc:	0afffff0 	beq	12a94 <rowLoop15$>
   12ad0:	e2866001 	add	r6, r6, #1
   12ad4:	e314000f 	tst	r4, #15
   12ad8:	1affffe9 	bne	12a84 <charLoop15$>
   12adc:	e8bd81f0 	pop	{r4, r5, r6, r7, r8, pc}

00012ae0 <DrawCharKNUM14>:
   12ae0:	e92d41f0 	push	{r4, r5, r6, r7, r8, lr}
   12ae4:	e59f4ecc 	ldr	r4, [pc, #3788]	; 139b8 <noPixel53$+0x20>
   12ae8:	e3a00034 	mov	r0, #52	; 0x34
   12aec:	e0844200 	add	r4, r4, r0, lsl #4
   12af0:	e3a06082 	mov	r6, #130	; 0x82

00012af4 <charLoop16$>:
   12af4:	e3a050e6 	mov	r5, #230	; 0xe6
   12af8:	e2855082 	add	r5, r5, #130	; 0x82
   12afc:	e3a08001 	mov	r8, #1
   12b00:	e4d47001 	ldrb	r7, [r4], #1

00012b04 <rowLoop16$>:
   12b04:	e1170008 	tst	r7, r8
   12b08:	0a000005 	beq	12b24 <noPixel16$>
   12b0c:	e1a00005 	mov	r0, r5
   12b10:	e1a01006 	mov	r1, r6
   12b14:	e3590000 	cmp	r9, #0
   12b18:	059f2e9c 	ldreq	r2, [pc, #3740]	; 139bc <noPixel53$+0x24>
   12b1c:	13a0201f 	movne	r2, #31
   12b20:	ebfff53a 	bl	10010 <DrawPixel>

00012b24 <noPixel16$>:
   12b24:	e2855001 	add	r5, r5, #1
   12b28:	e1a08088 	lsl	r8, r8, #1
   12b2c:	e3180c01 	tst	r8, #256	; 0x100
   12b30:	0afffff3 	beq	12b04 <rowLoop16$>
   12b34:	e2866001 	add	r6, r6, #1
   12b38:	e314000f 	tst	r4, #15
   12b3c:	1affffec 	bne	12af4 <charLoop16$>
   12b40:	e8bd81f0 	pop	{r4, r5, r6, r7, r8, pc}

00012b44 <DrawCharKNUM15>:
   12b44:	e92d41f0 	push	{r4, r5, r6, r7, r8, lr}
   12b48:	e59f4e68 	ldr	r4, [pc, #3688]	; 139b8 <noPixel53$+0x20>
   12b4c:	e3a00035 	mov	r0, #53	; 0x35
   12b50:	e0844200 	add	r4, r4, r0, lsl #4
   12b54:	e3a06082 	mov	r6, #130	; 0x82

00012b58 <charLoop17$>:
   12b58:	e3a050e6 	mov	r5, #230	; 0xe6
   12b5c:	e2855082 	add	r5, r5, #130	; 0x82
   12b60:	e3a08001 	mov	r8, #1
   12b64:	e4d47001 	ldrb	r7, [r4], #1

00012b68 <rowLoop17$>:
   12b68:	e1170008 	tst	r7, r8
   12b6c:	0a000005 	beq	12b88 <noPixel17$>
   12b70:	e1a00005 	mov	r0, r5
   12b74:	e1a01006 	mov	r1, r6
   12b78:	e3590000 	cmp	r9, #0
   12b7c:	059f2e38 	ldreq	r2, [pc, #3640]	; 139bc <noPixel53$+0x24>
   12b80:	13a0201f 	movne	r2, #31
   12b84:	ebfff521 	bl	10010 <DrawPixel>

00012b88 <noPixel17$>:
   12b88:	e2855001 	add	r5, r5, #1
   12b8c:	e1a08088 	lsl	r8, r8, #1
   12b90:	e3180c01 	tst	r8, #256	; 0x100
   12b94:	0afffff3 	beq	12b68 <rowLoop17$>
   12b98:	e2866001 	add	r6, r6, #1
   12b9c:	e314000f 	tst	r4, #15
   12ba0:	1affffec 	bne	12b58 <charLoop17$>
   12ba4:	e8bd81f0 	pop	{r4, r5, r6, r7, r8, pc}

00012ba8 <DrawCharKNUM16>:
   12ba8:	e92d41f0 	push	{r4, r5, r6, r7, r8, lr}
   12bac:	e59f4e04 	ldr	r4, [pc, #3588]	; 139b8 <noPixel53$+0x20>
   12bb0:	e3a00036 	mov	r0, #54	; 0x36
   12bb4:	e0844200 	add	r4, r4, r0, lsl #4
   12bb8:	e3a06082 	mov	r6, #130	; 0x82

00012bbc <charLoop18$>:
   12bbc:	e3a050e6 	mov	r5, #230	; 0xe6
   12bc0:	e2855082 	add	r5, r5, #130	; 0x82
   12bc4:	e3a08001 	mov	r8, #1
   12bc8:	e4d47001 	ldrb	r7, [r4], #1

00012bcc <rowLoop18$>:
   12bcc:	e1170008 	tst	r7, r8
   12bd0:	0a000005 	beq	12bec <noPixel18$>
   12bd4:	e1a00005 	mov	r0, r5
   12bd8:	e1a01006 	mov	r1, r6
   12bdc:	e3590000 	cmp	r9, #0
   12be0:	059f2dd4 	ldreq	r2, [pc, #3540]	; 139bc <noPixel53$+0x24>
   12be4:	13a0201f 	movne	r2, #31
   12be8:	ebfff508 	bl	10010 <DrawPixel>

00012bec <noPixel18$>:
   12bec:	e2855001 	add	r5, r5, #1
   12bf0:	e1a08088 	lsl	r8, r8, #1
   12bf4:	e3180c01 	tst	r8, #256	; 0x100
   12bf8:	0afffff3 	beq	12bcc <rowLoop18$>
   12bfc:	e2866001 	add	r6, r6, #1
   12c00:	e314000f 	tst	r4, #15
   12c04:	1affffec 	bne	12bbc <charLoop18$>
   12c08:	e8bd81f0 	pop	{r4, r5, r6, r7, r8, pc}

00012c0c <DrawCharKNUM17>:
   12c0c:	e92d41f0 	push	{r4, r5, r6, r7, r8, lr}
   12c10:	e59f4da0 	ldr	r4, [pc, #3488]	; 139b8 <noPixel53$+0x20>
   12c14:	e3a00037 	mov	r0, #55	; 0x37
   12c18:	e0844200 	add	r4, r4, r0, lsl #4
   12c1c:	e3a06082 	mov	r6, #130	; 0x82

00012c20 <charLoop19$>:
   12c20:	e3a050e6 	mov	r5, #230	; 0xe6
   12c24:	e2855082 	add	r5, r5, #130	; 0x82
   12c28:	e3a08001 	mov	r8, #1
   12c2c:	e4d47001 	ldrb	r7, [r4], #1

00012c30 <rowLoop19$>:
   12c30:	e1170008 	tst	r7, r8
   12c34:	0a000005 	beq	12c50 <noPixel19$>
   12c38:	e1a00005 	mov	r0, r5
   12c3c:	e1a01006 	mov	r1, r6
   12c40:	e3590000 	cmp	r9, #0
   12c44:	059f2d70 	ldreq	r2, [pc, #3440]	; 139bc <noPixel53$+0x24>
   12c48:	13a0201f 	movne	r2, #31
   12c4c:	ebfff4ef 	bl	10010 <DrawPixel>

00012c50 <noPixel19$>:
   12c50:	e2855001 	add	r5, r5, #1
   12c54:	e1a08088 	lsl	r8, r8, #1
   12c58:	e3180c01 	tst	r8, #256	; 0x100
   12c5c:	0afffff3 	beq	12c30 <rowLoop19$>
   12c60:	e2866001 	add	r6, r6, #1
   12c64:	e314000f 	tst	r4, #15
   12c68:	1affffec 	bne	12c20 <charLoop19$>
   12c6c:	e8bd81f0 	pop	{r4, r5, r6, r7, r8, pc}

00012c70 <DrawCharKNUM18>:
   12c70:	e92d41f0 	push	{r4, r5, r6, r7, r8, lr}
   12c74:	e59f4d3c 	ldr	r4, [pc, #3388]	; 139b8 <noPixel53$+0x20>
   12c78:	e3a00038 	mov	r0, #56	; 0x38
   12c7c:	e0844200 	add	r4, r4, r0, lsl #4
   12c80:	e3a06082 	mov	r6, #130	; 0x82

00012c84 <charLoop20$>:
   12c84:	e3a050e6 	mov	r5, #230	; 0xe6
   12c88:	e2855082 	add	r5, r5, #130	; 0x82
   12c8c:	e3a08001 	mov	r8, #1
   12c90:	e4d47001 	ldrb	r7, [r4], #1

00012c94 <rowLoop20$>:
   12c94:	e1170008 	tst	r7, r8
   12c98:	0a000005 	beq	12cb4 <noPixel20$>
   12c9c:	e1a00005 	mov	r0, r5
   12ca0:	e1a01006 	mov	r1, r6
   12ca4:	e3590000 	cmp	r9, #0
   12ca8:	059f2d0c 	ldreq	r2, [pc, #3340]	; 139bc <noPixel53$+0x24>
   12cac:	13a0201f 	movne	r2, #31
   12cb0:	ebfff4d6 	bl	10010 <DrawPixel>

00012cb4 <noPixel20$>:
   12cb4:	e2855001 	add	r5, r5, #1
   12cb8:	e1a08088 	lsl	r8, r8, #1
   12cbc:	e3180c01 	tst	r8, #256	; 0x100
   12cc0:	0afffff3 	beq	12c94 <rowLoop20$>
   12cc4:	e2866001 	add	r6, r6, #1
   12cc8:	e314000f 	tst	r4, #15
   12ccc:	1affffec 	bne	12c84 <charLoop20$>
   12cd0:	e8bd81f0 	pop	{r4, r5, r6, r7, r8, pc}

00012cd4 <DrawCharKNUM19>:
   12cd4:	e92d41f0 	push	{r4, r5, r6, r7, r8, lr}
   12cd8:	e59f4cd8 	ldr	r4, [pc, #3288]	; 139b8 <noPixel53$+0x20>
   12cdc:	e3a00039 	mov	r0, #57	; 0x39
   12ce0:	e0844200 	add	r4, r4, r0, lsl #4
   12ce4:	e3a06082 	mov	r6, #130	; 0x82

00012ce8 <charLoop21$>:
   12ce8:	e3a050e6 	mov	r5, #230	; 0xe6
   12cec:	e2855082 	add	r5, r5, #130	; 0x82
   12cf0:	e3a08001 	mov	r8, #1
   12cf4:	e4d47001 	ldrb	r7, [r4], #1

00012cf8 <rowLoop21$>:
   12cf8:	e1170008 	tst	r7, r8
   12cfc:	0a000005 	beq	12d18 <noPixel21$>
   12d00:	e1a00005 	mov	r0, r5
   12d04:	e1a01006 	mov	r1, r6
   12d08:	e3590000 	cmp	r9, #0
   12d0c:	059f2ca8 	ldreq	r2, [pc, #3240]	; 139bc <noPixel53$+0x24>
   12d10:	13a0201f 	movne	r2, #31
   12d14:	ebfff4bd 	bl	10010 <DrawPixel>

00012d18 <noPixel21$>:
   12d18:	e2855001 	add	r5, r5, #1
   12d1c:	e1a08088 	lsl	r8, r8, #1
   12d20:	e3180c01 	tst	r8, #256	; 0x100
   12d24:	0afffff3 	beq	12cf8 <rowLoop21$>
   12d28:	e2866001 	add	r6, r6, #1
   12d2c:	e314000f 	tst	r4, #15
   12d30:	1affffec 	bne	12ce8 <charLoop21$>
   12d34:	e8bd81f0 	pop	{r4, r5, r6, r7, r8, pc}

00012d38 <DrawCharKNUM20>:
   12d38:	e92d41f0 	push	{r4, r5, r6, r7, r8, lr}
   12d3c:	e59f4c74 	ldr	r4, [pc, #3188]	; 139b8 <noPixel53$+0x20>
   12d40:	e3a00030 	mov	r0, #48	; 0x30
   12d44:	e0844200 	add	r4, r4, r0, lsl #4
   12d48:	e3a06082 	mov	r6, #130	; 0x82

00012d4c <charLoop22$>:
   12d4c:	e3a050dc 	mov	r5, #220	; 0xdc
   12d50:	e2855082 	add	r5, r5, #130	; 0x82
   12d54:	e3a08001 	mov	r8, #1
   12d58:	e4d47001 	ldrb	r7, [r4], #1

00012d5c <rowLoop22$>:
   12d5c:	e1170008 	tst	r7, r8
   12d60:	0a000005 	beq	12d7c <noPixel22$>
   12d64:	e1a00005 	mov	r0, r5
   12d68:	e1a01006 	mov	r1, r6
   12d6c:	e3590000 	cmp	r9, #0
   12d70:	059f2c44 	ldreq	r2, [pc, #3140]	; 139bc <noPixel53$+0x24>
   12d74:	13a0201f 	movne	r2, #31
   12d78:	ebfff4a4 	bl	10010 <DrawPixel>

00012d7c <noPixel22$>:
   12d7c:	e2855001 	add	r5, r5, #1
   12d80:	e1a08088 	lsl	r8, r8, #1
   12d84:	e3180c01 	tst	r8, #256	; 0x100
   12d88:	0afffff3 	beq	12d5c <rowLoop22$>
   12d8c:	e2866001 	add	r6, r6, #1
   12d90:	e314000f 	tst	r4, #15
   12d94:	1affffec 	bne	12d4c <charLoop22$>
   12d98:	e8bd81f0 	pop	{r4, r5, r6, r7, r8, pc}

00012d9c <DrawCharKNUM21>:
   12d9c:	e92d41f0 	push	{r4, r5, r6, r7, r8, lr}
   12da0:	e59f4c10 	ldr	r4, [pc, #3088]	; 139b8 <noPixel53$+0x20>
   12da4:	e3a00031 	mov	r0, #49	; 0x31
   12da8:	e0844200 	add	r4, r4, r0, lsl #4
   12dac:	e3a06082 	mov	r6, #130	; 0x82

00012db0 <charLoop23$>:
   12db0:	e3a050dc 	mov	r5, #220	; 0xdc
   12db4:	e2855082 	add	r5, r5, #130	; 0x82
   12db8:	e3a08001 	mov	r8, #1
   12dbc:	e4d47001 	ldrb	r7, [r4], #1

00012dc0 <rowLoop23$>:
   12dc0:	e1170008 	tst	r7, r8
   12dc4:	0a000005 	beq	12de0 <noPixel23$>
   12dc8:	e1a00005 	mov	r0, r5
   12dcc:	e1a01006 	mov	r1, r6
   12dd0:	e3590000 	cmp	r9, #0
   12dd4:	059f2be0 	ldreq	r2, [pc, #3040]	; 139bc <noPixel53$+0x24>
   12dd8:	13a0201f 	movne	r2, #31
   12ddc:	ebfff48b 	bl	10010 <DrawPixel>

00012de0 <noPixel23$>:
   12de0:	e2855001 	add	r5, r5, #1
   12de4:	e1a08088 	lsl	r8, r8, #1
   12de8:	e3180c01 	tst	r8, #256	; 0x100
   12dec:	0afffff3 	beq	12dc0 <rowLoop23$>
   12df0:	e2866001 	add	r6, r6, #1
   12df4:	e314000f 	tst	r4, #15
   12df8:	1affffec 	bne	12db0 <charLoop23$>
   12dfc:	e8bd81f0 	pop	{r4, r5, r6, r7, r8, pc}

00012e00 <DrawCharKNUM22>:
   12e00:	e92d41f0 	push	{r4, r5, r6, r7, r8, lr}
   12e04:	e59f4bac 	ldr	r4, [pc, #2988]	; 139b8 <noPixel53$+0x20>
   12e08:	e3a00032 	mov	r0, #50	; 0x32
   12e0c:	e0844200 	add	r4, r4, r0, lsl #4
   12e10:	e3a06082 	mov	r6, #130	; 0x82

00012e14 <charLoop24$>:
   12e14:	e3a050dc 	mov	r5, #220	; 0xdc
   12e18:	e2855082 	add	r5, r5, #130	; 0x82
   12e1c:	e3a08001 	mov	r8, #1
   12e20:	e4d47001 	ldrb	r7, [r4], #1

00012e24 <rowLoop24$>:
   12e24:	e1170008 	tst	r7, r8
   12e28:	0a000005 	beq	12e44 <noPixel24$>
   12e2c:	e1a00005 	mov	r0, r5
   12e30:	e1a01006 	mov	r1, r6
   12e34:	e3590000 	cmp	r9, #0
   12e38:	059f2b7c 	ldreq	r2, [pc, #2940]	; 139bc <noPixel53$+0x24>
   12e3c:	13a0201f 	movne	r2, #31
   12e40:	ebfff472 	bl	10010 <DrawPixel>

00012e44 <noPixel24$>:
   12e44:	e2855001 	add	r5, r5, #1
   12e48:	e1a08088 	lsl	r8, r8, #1
   12e4c:	e3180c01 	tst	r8, #256	; 0x100
   12e50:	0afffff3 	beq	12e24 <rowLoop24$>
   12e54:	e2866001 	add	r6, r6, #1
   12e58:	e314000f 	tst	r4, #15
   12e5c:	1affffec 	bne	12e14 <charLoop24$>
   12e60:	e8bd81f0 	pop	{r4, r5, r6, r7, r8, pc}

00012e64 <DrawCharKNUM23>:
   12e64:	e92d41f0 	push	{r4, r5, r6, r7, r8, lr}
   12e68:	e59f4b48 	ldr	r4, [pc, #2888]	; 139b8 <noPixel53$+0x20>
   12e6c:	e3a00033 	mov	r0, #51	; 0x33
   12e70:	e0844200 	add	r4, r4, r0, lsl #4
   12e74:	e3a06082 	mov	r6, #130	; 0x82

00012e78 <charLoop25$>:
   12e78:	e3a050dc 	mov	r5, #220	; 0xdc
   12e7c:	e2855082 	add	r5, r5, #130	; 0x82
   12e80:	e3a08001 	mov	r8, #1
   12e84:	e4d47001 	ldrb	r7, [r4], #1

00012e88 <rowLoop25$>:
   12e88:	e1170008 	tst	r7, r8
   12e8c:	0a000005 	beq	12ea8 <noPixel25$>
   12e90:	e1a00005 	mov	r0, r5
   12e94:	e1a01006 	mov	r1, r6
   12e98:	e3590000 	cmp	r9, #0
   12e9c:	059f2b18 	ldreq	r2, [pc, #2840]	; 139bc <noPixel53$+0x24>
   12ea0:	13a0201f 	movne	r2, #31
   12ea4:	ebfff459 	bl	10010 <DrawPixel>

00012ea8 <noPixel25$>:
   12ea8:	e2855001 	add	r5, r5, #1
   12eac:	e1a08088 	lsl	r8, r8, #1
   12eb0:	e3180c01 	tst	r8, #256	; 0x100
   12eb4:	0afffff3 	beq	12e88 <rowLoop25$>
   12eb8:	e2866001 	add	r6, r6, #1
   12ebc:	e314000f 	tst	r4, #15
   12ec0:	1affffec 	bne	12e78 <charLoop25$>
   12ec4:	e8bd81f0 	pop	{r4, r5, r6, r7, r8, pc}

00012ec8 <DrawCharKNUM24>:
   12ec8:	e92d41f0 	push	{r4, r5, r6, r7, r8, lr}
   12ecc:	e59f4ae4 	ldr	r4, [pc, #2788]	; 139b8 <noPixel53$+0x20>
   12ed0:	e3a00034 	mov	r0, #52	; 0x34
   12ed4:	e0844200 	add	r4, r4, r0, lsl #4
   12ed8:	e3a06082 	mov	r6, #130	; 0x82

00012edc <charLoop26$>:
   12edc:	e3a050dc 	mov	r5, #220	; 0xdc
   12ee0:	e2855082 	add	r5, r5, #130	; 0x82
   12ee4:	e3a08001 	mov	r8, #1
   12ee8:	e4d47001 	ldrb	r7, [r4], #1

00012eec <rowLoop26$>:
   12eec:	e1170008 	tst	r7, r8
   12ef0:	0a000005 	beq	12f0c <noPixel26$>
   12ef4:	e1a00005 	mov	r0, r5
   12ef8:	e1a01006 	mov	r1, r6
   12efc:	e3590000 	cmp	r9, #0
   12f00:	059f2ab4 	ldreq	r2, [pc, #2740]	; 139bc <noPixel53$+0x24>
   12f04:	13a0201f 	movne	r2, #31
   12f08:	ebfff440 	bl	10010 <DrawPixel>

00012f0c <noPixel26$>:
   12f0c:	e2855001 	add	r5, r5, #1
   12f10:	e1a08088 	lsl	r8, r8, #1
   12f14:	e3180c01 	tst	r8, #256	; 0x100
   12f18:	0afffff3 	beq	12eec <rowLoop26$>
   12f1c:	e2866001 	add	r6, r6, #1
   12f20:	e314000f 	tst	r4, #15
   12f24:	1affffec 	bne	12edc <charLoop26$>
   12f28:	e8bd81f0 	pop	{r4, r5, r6, r7, r8, pc}

00012f2c <DrawCharKNUM25>:
   12f2c:	e92d41f0 	push	{r4, r5, r6, r7, r8, lr}
   12f30:	e59f4a80 	ldr	r4, [pc, #2688]	; 139b8 <noPixel53$+0x20>
   12f34:	e3a00035 	mov	r0, #53	; 0x35
   12f38:	e0844200 	add	r4, r4, r0, lsl #4
   12f3c:	e3a06082 	mov	r6, #130	; 0x82

00012f40 <charLoop27$>:
   12f40:	e3a050dc 	mov	r5, #220	; 0xdc
   12f44:	e2855082 	add	r5, r5, #130	; 0x82
   12f48:	e3a08001 	mov	r8, #1
   12f4c:	e4d47001 	ldrb	r7, [r4], #1

00012f50 <rowLoop27$>:
   12f50:	e1170008 	tst	r7, r8
   12f54:	0a000005 	beq	12f70 <noPixel27$>
   12f58:	e1a00005 	mov	r0, r5
   12f5c:	e1a01006 	mov	r1, r6
   12f60:	e3590000 	cmp	r9, #0
   12f64:	059f2a50 	ldreq	r2, [pc, #2640]	; 139bc <noPixel53$+0x24>
   12f68:	13a0201f 	movne	r2, #31
   12f6c:	ebfff427 	bl	10010 <DrawPixel>

00012f70 <noPixel27$>:
   12f70:	e2855001 	add	r5, r5, #1
   12f74:	e1a08088 	lsl	r8, r8, #1
   12f78:	e3180c01 	tst	r8, #256	; 0x100
   12f7c:	0afffff3 	beq	12f50 <rowLoop27$>
   12f80:	e2866001 	add	r6, r6, #1
   12f84:	e314000f 	tst	r4, #15
   12f88:	1affffec 	bne	12f40 <charLoop27$>
   12f8c:	e8bd81f0 	pop	{r4, r5, r6, r7, r8, pc}

00012f90 <DrawCharKNUM26>:
   12f90:	e92d41f0 	push	{r4, r5, r6, r7, r8, lr}
   12f94:	e59f4a1c 	ldr	r4, [pc, #2588]	; 139b8 <noPixel53$+0x20>
   12f98:	e3a00036 	mov	r0, #54	; 0x36
   12f9c:	e0844200 	add	r4, r4, r0, lsl #4
   12fa0:	e3a06082 	mov	r6, #130	; 0x82

00012fa4 <charLoop28$>:
   12fa4:	e3a050dc 	mov	r5, #220	; 0xdc
   12fa8:	e2855082 	add	r5, r5, #130	; 0x82
   12fac:	e3a08001 	mov	r8, #1
   12fb0:	e4d47001 	ldrb	r7, [r4], #1

00012fb4 <rowLoop28$>:
   12fb4:	e1170008 	tst	r7, r8
   12fb8:	0a000005 	beq	12fd4 <noPixel28$>
   12fbc:	e1a00005 	mov	r0, r5
   12fc0:	e1a01006 	mov	r1, r6
   12fc4:	e3590000 	cmp	r9, #0
   12fc8:	059f29ec 	ldreq	r2, [pc, #2540]	; 139bc <noPixel53$+0x24>
   12fcc:	13a0201f 	movne	r2, #31
   12fd0:	ebfff40e 	bl	10010 <DrawPixel>

00012fd4 <noPixel28$>:
   12fd4:	e2855001 	add	r5, r5, #1
   12fd8:	e1a08088 	lsl	r8, r8, #1
   12fdc:	e3180c01 	tst	r8, #256	; 0x100
   12fe0:	0afffff3 	beq	12fb4 <rowLoop28$>
   12fe4:	e2866001 	add	r6, r6, #1
   12fe8:	e314000f 	tst	r4, #15
   12fec:	1affffec 	bne	12fa4 <charLoop28$>
   12ff0:	e8bd81f0 	pop	{r4, r5, r6, r7, r8, pc}

00012ff4 <DrawCharKNUM27>:
   12ff4:	e92d41f0 	push	{r4, r5, r6, r7, r8, lr}
   12ff8:	e59f49b8 	ldr	r4, [pc, #2488]	; 139b8 <noPixel53$+0x20>
   12ffc:	e3a00037 	mov	r0, #55	; 0x37
   13000:	e0844200 	add	r4, r4, r0, lsl #4
   13004:	e3a06082 	mov	r6, #130	; 0x82

00013008 <charLoop29$>:
   13008:	e3a050dc 	mov	r5, #220	; 0xdc
   1300c:	e2855082 	add	r5, r5, #130	; 0x82
   13010:	e3a08001 	mov	r8, #1
   13014:	e4d47001 	ldrb	r7, [r4], #1

00013018 <rowLoop29$>:
   13018:	e1170008 	tst	r7, r8
   1301c:	0a000005 	beq	13038 <noPixel29$>
   13020:	e1a00005 	mov	r0, r5
   13024:	e1a01006 	mov	r1, r6
   13028:	e3590000 	cmp	r9, #0
   1302c:	059f2988 	ldreq	r2, [pc, #2440]	; 139bc <noPixel53$+0x24>
   13030:	13a0201f 	movne	r2, #31
   13034:	ebfff3f5 	bl	10010 <DrawPixel>

00013038 <noPixel29$>:
   13038:	e2855001 	add	r5, r5, #1
   1303c:	e1a08088 	lsl	r8, r8, #1
   13040:	e3180c01 	tst	r8, #256	; 0x100
   13044:	0afffff3 	beq	13018 <rowLoop29$>
   13048:	e2866001 	add	r6, r6, #1
   1304c:	e314000f 	tst	r4, #15
   13050:	1affffec 	bne	13008 <charLoop29$>
   13054:	e8bd81f0 	pop	{r4, r5, r6, r7, r8, pc}

00013058 <DrawCharKNUM28>:
   13058:	e92d41f0 	push	{r4, r5, r6, r7, r8, lr}
   1305c:	e59f4954 	ldr	r4, [pc, #2388]	; 139b8 <noPixel53$+0x20>
   13060:	e3a00038 	mov	r0, #56	; 0x38
   13064:	e0844200 	add	r4, r4, r0, lsl #4
   13068:	e3a06082 	mov	r6, #130	; 0x82

0001306c <charLoop30$>:
   1306c:	e3a050dc 	mov	r5, #220	; 0xdc
   13070:	e2855082 	add	r5, r5, #130	; 0x82
   13074:	e3a08001 	mov	r8, #1
   13078:	e4d47001 	ldrb	r7, [r4], #1

0001307c <rowLoop30$>:
   1307c:	e1170008 	tst	r7, r8
   13080:	0a000005 	beq	1309c <noPixel30$>
   13084:	e1a00005 	mov	r0, r5
   13088:	e1a01006 	mov	r1, r6
   1308c:	e3590000 	cmp	r9, #0
   13090:	059f2924 	ldreq	r2, [pc, #2340]	; 139bc <noPixel53$+0x24>
   13094:	13a0201f 	movne	r2, #31
   13098:	ebfff3dc 	bl	10010 <DrawPixel>

0001309c <noPixel30$>:
   1309c:	e2855001 	add	r5, r5, #1
   130a0:	e1a08088 	lsl	r8, r8, #1
   130a4:	e3180c01 	tst	r8, #256	; 0x100
   130a8:	0afffff3 	beq	1307c <rowLoop30$>
   130ac:	e2866001 	add	r6, r6, #1
   130b0:	e314000f 	tst	r4, #15
   130b4:	1affffec 	bne	1306c <charLoop30$>
   130b8:	e8bd81f0 	pop	{r4, r5, r6, r7, r8, pc}

000130bc <DrawCharKNUM29>:
   130bc:	e92d41f0 	push	{r4, r5, r6, r7, r8, lr}
   130c0:	e59f48f0 	ldr	r4, [pc, #2288]	; 139b8 <noPixel53$+0x20>
   130c4:	e3a00039 	mov	r0, #57	; 0x39
   130c8:	e0844200 	add	r4, r4, r0, lsl #4
   130cc:	e3a06082 	mov	r6, #130	; 0x82

000130d0 <charLoop31$>:
   130d0:	e3a050dc 	mov	r5, #220	; 0xdc
   130d4:	e2855082 	add	r5, r5, #130	; 0x82
   130d8:	e3a08001 	mov	r8, #1
   130dc:	e4d47001 	ldrb	r7, [r4], #1

000130e0 <rowLoop31$>:
   130e0:	e1170008 	tst	r7, r8
   130e4:	0a000005 	beq	13100 <noPixel31$>
   130e8:	e1a00005 	mov	r0, r5
   130ec:	e1a01006 	mov	r1, r6
   130f0:	e3590000 	cmp	r9, #0
   130f4:	059f28c0 	ldreq	r2, [pc, #2240]	; 139bc <noPixel53$+0x24>
   130f8:	13a0201f 	movne	r2, #31
   130fc:	ebfff3c3 	bl	10010 <DrawPixel>

00013100 <noPixel31$>:
   13100:	e2855001 	add	r5, r5, #1
   13104:	e1a08088 	lsl	r8, r8, #1
   13108:	e3180c01 	tst	r8, #256	; 0x100
   1310c:	0afffff3 	beq	130e0 <rowLoop31$>
   13110:	e2866001 	add	r6, r6, #1
   13114:	e314000f 	tst	r4, #15
   13118:	1affffec 	bne	130d0 <charLoop31$>
   1311c:	e8bd81f0 	pop	{r4, r5, r6, r7, r8, pc}

00013120 <DrawCharMNUM10>:
   13120:	e92d41f0 	push	{r4, r5, r6, r7, r8, lr}
   13124:	e59f488c 	ldr	r4, [pc, #2188]	; 139b8 <noPixel53$+0x20>
   13128:	e3a00030 	mov	r0, #48	; 0x30
   1312c:	e0844200 	add	r4, r4, r0, lsl #4
   13130:	e3a06082 	mov	r6, #130	; 0x82

00013134 <charLoop32$>:
   13134:	e3a05f4b 	mov	r5, #300	; 0x12c
   13138:	e2855f46 	add	r5, r5, #280	; 0x118
   1313c:	e3a08001 	mov	r8, #1
   13140:	e4d47001 	ldrb	r7, [r4], #1

00013144 <rowLoop32$>:
   13144:	e1170008 	tst	r7, r8
   13148:	0a000005 	beq	13164 <noPixel32$>
   1314c:	e1a00005 	mov	r0, r5
   13150:	e1a01006 	mov	r1, r6
   13154:	e3590000 	cmp	r9, #0
   13158:	059f285c 	ldreq	r2, [pc, #2140]	; 139bc <noPixel53$+0x24>
   1315c:	13a0201f 	movne	r2, #31
   13160:	ebfff3aa 	bl	10010 <DrawPixel>

00013164 <noPixel32$>:
   13164:	e2855001 	add	r5, r5, #1
   13168:	e1a08088 	lsl	r8, r8, #1
   1316c:	e3180c01 	tst	r8, #256	; 0x100
   13170:	0afffff3 	beq	13144 <rowLoop32$>
   13174:	e2866001 	add	r6, r6, #1
   13178:	e314000f 	tst	r4, #15
   1317c:	1affffec 	bne	13134 <charLoop32$>
   13180:	e8bd81f0 	pop	{r4, r5, r6, r7, r8, pc}

00013184 <DrawCharMNUM11>:
   13184:	e92d41f0 	push	{r4, r5, r6, r7, r8, lr}
   13188:	e59f4828 	ldr	r4, [pc, #2088]	; 139b8 <noPixel53$+0x20>
   1318c:	e3a00031 	mov	r0, #49	; 0x31
   13190:	e0844200 	add	r4, r4, r0, lsl #4
   13194:	e3a06082 	mov	r6, #130	; 0x82

00013198 <charLoop33$>:
   13198:	e3a05f4b 	mov	r5, #300	; 0x12c
   1319c:	e2855f46 	add	r5, r5, #280	; 0x118
   131a0:	e3a08001 	mov	r8, #1
   131a4:	e4d47001 	ldrb	r7, [r4], #1

000131a8 <rowLoop33$>:
   131a8:	e1170008 	tst	r7, r8
   131ac:	0a000005 	beq	131c8 <noPixel33$>
   131b0:	e1a00005 	mov	r0, r5
   131b4:	e1a01006 	mov	r1, r6
   131b8:	e3590000 	cmp	r9, #0
   131bc:	059f27f8 	ldreq	r2, [pc, #2040]	; 139bc <noPixel53$+0x24>
   131c0:	13a0201f 	movne	r2, #31
   131c4:	ebfff391 	bl	10010 <DrawPixel>

000131c8 <noPixel33$>:
   131c8:	e2855001 	add	r5, r5, #1
   131cc:	e1a08088 	lsl	r8, r8, #1
   131d0:	e3180c01 	tst	r8, #256	; 0x100
   131d4:	0afffff3 	beq	131a8 <rowLoop33$>
   131d8:	e2866001 	add	r6, r6, #1
   131dc:	e314000f 	tst	r4, #15
   131e0:	1affffec 	bne	13198 <charLoop33$>
   131e4:	e8bd81f0 	pop	{r4, r5, r6, r7, r8, pc}

000131e8 <DrawCharMNUM12>:
   131e8:	e92d41f0 	push	{r4, r5, r6, r7, r8, lr}
   131ec:	e59f47c4 	ldr	r4, [pc, #1988]	; 139b8 <noPixel53$+0x20>
   131f0:	e3a00032 	mov	r0, #50	; 0x32
   131f4:	e0844200 	add	r4, r4, r0, lsl #4
   131f8:	e3a06082 	mov	r6, #130	; 0x82

000131fc <charLoop34$>:
   131fc:	e3a05f4b 	mov	r5, #300	; 0x12c
   13200:	e2855f46 	add	r5, r5, #280	; 0x118
   13204:	e3a08001 	mov	r8, #1
   13208:	e4d47001 	ldrb	r7, [r4], #1

0001320c <rowLoop34$>:
   1320c:	e1170008 	tst	r7, r8
   13210:	0a000005 	beq	1322c <noPixel34$>
   13214:	e1a00005 	mov	r0, r5
   13218:	e1a01006 	mov	r1, r6
   1321c:	e3590000 	cmp	r9, #0
   13220:	059f2794 	ldreq	r2, [pc, #1940]	; 139bc <noPixel53$+0x24>
   13224:	13a0201f 	movne	r2, #31
   13228:	ebfff378 	bl	10010 <DrawPixel>

0001322c <noPixel34$>:
   1322c:	e2855001 	add	r5, r5, #1
   13230:	e1a08088 	lsl	r8, r8, #1
   13234:	e3180c01 	tst	r8, #256	; 0x100
   13238:	0afffff3 	beq	1320c <rowLoop34$>
   1323c:	e2866001 	add	r6, r6, #1
   13240:	e314000f 	tst	r4, #15
   13244:	1affffec 	bne	131fc <charLoop34$>
   13248:	e8bd81f0 	pop	{r4, r5, r6, r7, r8, pc}

0001324c <DrawCharMNUM13>:
   1324c:	e92d41f0 	push	{r4, r5, r6, r7, r8, lr}
   13250:	e59f4760 	ldr	r4, [pc, #1888]	; 139b8 <noPixel53$+0x20>
   13254:	e3a00033 	mov	r0, #51	; 0x33
   13258:	e0844200 	add	r4, r4, r0, lsl #4
   1325c:	e3a06082 	mov	r6, #130	; 0x82

00013260 <charLoop35$>:
   13260:	e3a05f4b 	mov	r5, #300	; 0x12c
   13264:	e2855f46 	add	r5, r5, #280	; 0x118
   13268:	e3a08001 	mov	r8, #1
   1326c:	e4d47001 	ldrb	r7, [r4], #1

00013270 <rowLoop35$>:
   13270:	e1170008 	tst	r7, r8
   13274:	0a000005 	beq	13290 <noPixel35$>
   13278:	e1a00005 	mov	r0, r5
   1327c:	e1a01006 	mov	r1, r6
   13280:	e3590000 	cmp	r9, #0
   13284:	059f2730 	ldreq	r2, [pc, #1840]	; 139bc <noPixel53$+0x24>
   13288:	13a0201f 	movne	r2, #31
   1328c:	ebfff35f 	bl	10010 <DrawPixel>

00013290 <noPixel35$>:
   13290:	e2855001 	add	r5, r5, #1
   13294:	e1a08088 	lsl	r8, r8, #1
   13298:	e3180c01 	tst	r8, #256	; 0x100
   1329c:	0afffff3 	beq	13270 <rowLoop35$>
   132a0:	e2866001 	add	r6, r6, #1
   132a4:	e314000f 	tst	r4, #15
   132a8:	1affffec 	bne	13260 <charLoop35$>
   132ac:	e8bd81f0 	pop	{r4, r5, r6, r7, r8, pc}

000132b0 <DrawCharMNUM14>:
   132b0:	e92d41f0 	push	{r4, r5, r6, r7, r8, lr}
   132b4:	e59f46fc 	ldr	r4, [pc, #1788]	; 139b8 <noPixel53$+0x20>
   132b8:	e3a00034 	mov	r0, #52	; 0x34
   132bc:	e0844200 	add	r4, r4, r0, lsl #4
   132c0:	e3a06082 	mov	r6, #130	; 0x82

000132c4 <charLoop36$>:
   132c4:	e3a05f4b 	mov	r5, #300	; 0x12c
   132c8:	e2855f46 	add	r5, r5, #280	; 0x118
   132cc:	e3a08001 	mov	r8, #1
   132d0:	e4d47001 	ldrb	r7, [r4], #1

000132d4 <rowLoop36$>:
   132d4:	e1170008 	tst	r7, r8
   132d8:	0a000005 	beq	132f4 <noPixel36$>
   132dc:	e1a00005 	mov	r0, r5
   132e0:	e1a01006 	mov	r1, r6
   132e4:	e3590000 	cmp	r9, #0
   132e8:	059f26cc 	ldreq	r2, [pc, #1740]	; 139bc <noPixel53$+0x24>
   132ec:	13a0201f 	movne	r2, #31
   132f0:	ebfff346 	bl	10010 <DrawPixel>

000132f4 <noPixel36$>:
   132f4:	e2855001 	add	r5, r5, #1
   132f8:	e1a08088 	lsl	r8, r8, #1
   132fc:	e3180c01 	tst	r8, #256	; 0x100
   13300:	0afffff3 	beq	132d4 <rowLoop36$>
   13304:	e2866001 	add	r6, r6, #1
   13308:	e314000f 	tst	r4, #15
   1330c:	1affffec 	bne	132c4 <charLoop36$>
   13310:	e8bd81f0 	pop	{r4, r5, r6, r7, r8, pc}

00013314 <DrawCharMNUM15>:
   13314:	e92d41f0 	push	{r4, r5, r6, r7, r8, lr}
   13318:	e59f4698 	ldr	r4, [pc, #1688]	; 139b8 <noPixel53$+0x20>
   1331c:	e3a00035 	mov	r0, #53	; 0x35
   13320:	e0844200 	add	r4, r4, r0, lsl #4
   13324:	e3a06082 	mov	r6, #130	; 0x82

00013328 <charLoop37$>:
   13328:	e3a05f4b 	mov	r5, #300	; 0x12c
   1332c:	e2855f46 	add	r5, r5, #280	; 0x118
   13330:	e3a08001 	mov	r8, #1
   13334:	e4d47001 	ldrb	r7, [r4], #1

00013338 <rowLoop37$>:
   13338:	e1170008 	tst	r7, r8
   1333c:	0a000005 	beq	13358 <noPixel37$>
   13340:	e1a00005 	mov	r0, r5
   13344:	e1a01006 	mov	r1, r6
   13348:	e3590000 	cmp	r9, #0
   1334c:	059f2668 	ldreq	r2, [pc, #1640]	; 139bc <noPixel53$+0x24>
   13350:	13a0201f 	movne	r2, #31
   13354:	ebfff32d 	bl	10010 <DrawPixel>

00013358 <noPixel37$>:
   13358:	e2855001 	add	r5, r5, #1
   1335c:	e1a08088 	lsl	r8, r8, #1
   13360:	e3180c01 	tst	r8, #256	; 0x100
   13364:	0afffff3 	beq	13338 <rowLoop37$>
   13368:	e2866001 	add	r6, r6, #1
   1336c:	e314000f 	tst	r4, #15
   13370:	1affffec 	bne	13328 <charLoop37$>
   13374:	e8bd81f0 	pop	{r4, r5, r6, r7, r8, pc}

00013378 <DrawCharMNUM16>:
   13378:	e92d41f0 	push	{r4, r5, r6, r7, r8, lr}
   1337c:	e59f4634 	ldr	r4, [pc, #1588]	; 139b8 <noPixel53$+0x20>
   13380:	e3a00036 	mov	r0, #54	; 0x36
   13384:	e0844200 	add	r4, r4, r0, lsl #4
   13388:	e3a06082 	mov	r6, #130	; 0x82

0001338c <charLoop38$>:
   1338c:	e3a05f4b 	mov	r5, #300	; 0x12c
   13390:	e2855f46 	add	r5, r5, #280	; 0x118
   13394:	e3a08001 	mov	r8, #1
   13398:	e4d47001 	ldrb	r7, [r4], #1

0001339c <rowLoop38$>:
   1339c:	e1170008 	tst	r7, r8
   133a0:	0a000005 	beq	133bc <noPixel38$>
   133a4:	e1a00005 	mov	r0, r5
   133a8:	e1a01006 	mov	r1, r6
   133ac:	e3590000 	cmp	r9, #0
   133b0:	059f2604 	ldreq	r2, [pc, #1540]	; 139bc <noPixel53$+0x24>
   133b4:	13a0201f 	movne	r2, #31
   133b8:	ebfff314 	bl	10010 <DrawPixel>

000133bc <noPixel38$>:
   133bc:	e2855001 	add	r5, r5, #1
   133c0:	e1a08088 	lsl	r8, r8, #1
   133c4:	e3180c01 	tst	r8, #256	; 0x100
   133c8:	0afffff3 	beq	1339c <rowLoop38$>
   133cc:	e2866001 	add	r6, r6, #1
   133d0:	e314000f 	tst	r4, #15
   133d4:	1affffec 	bne	1338c <charLoop38$>
   133d8:	e8bd81f0 	pop	{r4, r5, r6, r7, r8, pc}

000133dc <DrawCharMNUM17>:
   133dc:	e92d41f0 	push	{r4, r5, r6, r7, r8, lr}
   133e0:	e59f45d0 	ldr	r4, [pc, #1488]	; 139b8 <noPixel53$+0x20>
   133e4:	e3a00037 	mov	r0, #55	; 0x37
   133e8:	e0844200 	add	r4, r4, r0, lsl #4
   133ec:	e3a06082 	mov	r6, #130	; 0x82

000133f0 <charLoop39$>:
   133f0:	e3a05f4b 	mov	r5, #300	; 0x12c
   133f4:	e2855f46 	add	r5, r5, #280	; 0x118
   133f8:	e3a08001 	mov	r8, #1
   133fc:	e4d47001 	ldrb	r7, [r4], #1

00013400 <rowLoop39$>:
   13400:	e1170008 	tst	r7, r8
   13404:	0a000005 	beq	13420 <noPixel39$>
   13408:	e1a00005 	mov	r0, r5
   1340c:	e1a01006 	mov	r1, r6
   13410:	e3590000 	cmp	r9, #0
   13414:	059f25a0 	ldreq	r2, [pc, #1440]	; 139bc <noPixel53$+0x24>
   13418:	13a0201f 	movne	r2, #31
   1341c:	ebfff2fb 	bl	10010 <DrawPixel>

00013420 <noPixel39$>:
   13420:	e2855001 	add	r5, r5, #1
   13424:	e1a08088 	lsl	r8, r8, #1
   13428:	e3180c01 	tst	r8, #256	; 0x100
   1342c:	0afffff3 	beq	13400 <rowLoop39$>
   13430:	e2866001 	add	r6, r6, #1
   13434:	e314000f 	tst	r4, #15
   13438:	1affffec 	bne	133f0 <charLoop39$>
   1343c:	e8bd81f0 	pop	{r4, r5, r6, r7, r8, pc}

00013440 <DrawCharMNUM18>:
   13440:	e92d41f0 	push	{r4, r5, r6, r7, r8, lr}
   13444:	e59f456c 	ldr	r4, [pc, #1388]	; 139b8 <noPixel53$+0x20>
   13448:	e3a00038 	mov	r0, #56	; 0x38
   1344c:	e0844200 	add	r4, r4, r0, lsl #4
   13450:	e3a06082 	mov	r6, #130	; 0x82

00013454 <charLoop40$>:
   13454:	e3a05f4b 	mov	r5, #300	; 0x12c
   13458:	e2855f46 	add	r5, r5, #280	; 0x118
   1345c:	e3a08001 	mov	r8, #1
   13460:	e4d47001 	ldrb	r7, [r4], #1

00013464 <rowLoop40$>:
   13464:	e1170008 	tst	r7, r8
   13468:	0a000005 	beq	13484 <noPixel40$>
   1346c:	e1a00005 	mov	r0, r5
   13470:	e1a01006 	mov	r1, r6
   13474:	e3590000 	cmp	r9, #0
   13478:	059f253c 	ldreq	r2, [pc, #1340]	; 139bc <noPixel53$+0x24>
   1347c:	13a0201f 	movne	r2, #31
   13480:	ebfff2e2 	bl	10010 <DrawPixel>

00013484 <noPixel40$>:
   13484:	e2855001 	add	r5, r5, #1
   13488:	e1a08088 	lsl	r8, r8, #1
   1348c:	e3180c01 	tst	r8, #256	; 0x100
   13490:	0afffff3 	beq	13464 <rowLoop40$>
   13494:	e2866001 	add	r6, r6, #1
   13498:	e314000f 	tst	r4, #15
   1349c:	1affffec 	bne	13454 <charLoop40$>
   134a0:	e8bd81f0 	pop	{r4, r5, r6, r7, r8, pc}

000134a4 <DrawCharMNUM19>:
   134a4:	e92d41f0 	push	{r4, r5, r6, r7, r8, lr}
   134a8:	e59f4508 	ldr	r4, [pc, #1288]	; 139b8 <noPixel53$+0x20>
   134ac:	e3a00039 	mov	r0, #57	; 0x39
   134b0:	e0844200 	add	r4, r4, r0, lsl #4
   134b4:	e3a06082 	mov	r6, #130	; 0x82

000134b8 <charLoop41$>:
   134b8:	e3a05f4b 	mov	r5, #300	; 0x12c
   134bc:	e2855f46 	add	r5, r5, #280	; 0x118
   134c0:	e3a08001 	mov	r8, #1
   134c4:	e4d47001 	ldrb	r7, [r4], #1

000134c8 <rowLoop41$>:
   134c8:	e1170008 	tst	r7, r8
   134cc:	0a000005 	beq	134e8 <noPixel41$>
   134d0:	e1a00005 	mov	r0, r5
   134d4:	e1a01006 	mov	r1, r6
   134d8:	e3590000 	cmp	r9, #0
   134dc:	059f24d8 	ldreq	r2, [pc, #1240]	; 139bc <noPixel53$+0x24>
   134e0:	13a0201f 	movne	r2, #31
   134e4:	ebfff2c9 	bl	10010 <DrawPixel>

000134e8 <noPixel41$>:
   134e8:	e2855001 	add	r5, r5, #1
   134ec:	e1a08088 	lsl	r8, r8, #1
   134f0:	e3180c01 	tst	r8, #256	; 0x100
   134f4:	0afffff3 	beq	134c8 <rowLoop41$>
   134f8:	e2866001 	add	r6, r6, #1
   134fc:	e314000f 	tst	r4, #15
   13500:	1affffec 	bne	134b8 <charLoop41$>
   13504:	e8bd81f0 	pop	{r4, r5, r6, r7, r8, pc}

00013508 <DrawCharMNUM20>:
   13508:	e92d41f0 	push	{r4, r5, r6, r7, r8, lr}
   1350c:	e59f44a4 	ldr	r4, [pc, #1188]	; 139b8 <noPixel53$+0x20>
   13510:	e3a00030 	mov	r0, #48	; 0x30
   13514:	e0844200 	add	r4, r4, r0, lsl #4
   13518:	e3a06082 	mov	r6, #130	; 0x82

0001351c <charLoop42$>:
   1351c:	e3a05e19 	mov	r5, #400	; 0x190
   13520:	e28550aa 	add	r5, r5, #170	; 0xaa
   13524:	e3a08001 	mov	r8, #1
   13528:	e4d47001 	ldrb	r7, [r4], #1

0001352c <rowLoop42$>:
   1352c:	e1170008 	tst	r7, r8
   13530:	0a000005 	beq	1354c <noPixel42$>
   13534:	e1a00005 	mov	r0, r5
   13538:	e1a01006 	mov	r1, r6
   1353c:	e3590000 	cmp	r9, #0
   13540:	059f2474 	ldreq	r2, [pc, #1140]	; 139bc <noPixel53$+0x24>
   13544:	13a0201f 	movne	r2, #31
   13548:	ebfff2b0 	bl	10010 <DrawPixel>

0001354c <noPixel42$>:
   1354c:	e2855001 	add	r5, r5, #1
   13550:	e1a08088 	lsl	r8, r8, #1
   13554:	e3180c01 	tst	r8, #256	; 0x100
   13558:	0afffff3 	beq	1352c <rowLoop42$>
   1355c:	e2866001 	add	r6, r6, #1
   13560:	e314000f 	tst	r4, #15
   13564:	1affffec 	bne	1351c <charLoop42$>
   13568:	e8bd81f0 	pop	{r4, r5, r6, r7, r8, pc}

0001356c <DrawCharMNUM21>:
   1356c:	e92d41f0 	push	{r4, r5, r6, r7, r8, lr}
   13570:	e59f4440 	ldr	r4, [pc, #1088]	; 139b8 <noPixel53$+0x20>
   13574:	e3a00031 	mov	r0, #49	; 0x31
   13578:	e0844200 	add	r4, r4, r0, lsl #4
   1357c:	e3a06082 	mov	r6, #130	; 0x82

00013580 <charLoop43$>:
   13580:	e3a05e19 	mov	r5, #400	; 0x190
   13584:	e28550aa 	add	r5, r5, #170	; 0xaa
   13588:	e3a08001 	mov	r8, #1
   1358c:	e4d47001 	ldrb	r7, [r4], #1

00013590 <rowLoop43$>:
   13590:	e1170008 	tst	r7, r8
   13594:	0a000005 	beq	135b0 <noPixel43$>
   13598:	e1a00005 	mov	r0, r5
   1359c:	e1a01006 	mov	r1, r6
   135a0:	e3590000 	cmp	r9, #0
   135a4:	059f2410 	ldreq	r2, [pc, #1040]	; 139bc <noPixel53$+0x24>
   135a8:	13a0201f 	movne	r2, #31
   135ac:	ebfff297 	bl	10010 <DrawPixel>

000135b0 <noPixel43$>:
   135b0:	e2855001 	add	r5, r5, #1
   135b4:	e1a08088 	lsl	r8, r8, #1
   135b8:	e3180c01 	tst	r8, #256	; 0x100
   135bc:	0afffff3 	beq	13590 <rowLoop43$>
   135c0:	e2866001 	add	r6, r6, #1
   135c4:	e314000f 	tst	r4, #15
   135c8:	1affffec 	bne	13580 <charLoop43$>
   135cc:	e8bd81f0 	pop	{r4, r5, r6, r7, r8, pc}

000135d0 <DrawCharMNUM22>:
   135d0:	e92d41f0 	push	{r4, r5, r6, r7, r8, lr}
   135d4:	e59f43dc 	ldr	r4, [pc, #988]	; 139b8 <noPixel53$+0x20>
   135d8:	e3a00032 	mov	r0, #50	; 0x32
   135dc:	e0844200 	add	r4, r4, r0, lsl #4
   135e0:	e3a06082 	mov	r6, #130	; 0x82

000135e4 <charLoop44$>:
   135e4:	e3a05e19 	mov	r5, #400	; 0x190
   135e8:	e28550aa 	add	r5, r5, #170	; 0xaa
   135ec:	e3a08001 	mov	r8, #1
   135f0:	e4d47001 	ldrb	r7, [r4], #1

000135f4 <rowLoop44$>:
   135f4:	e1170008 	tst	r7, r8
   135f8:	0a000005 	beq	13614 <noPixel44$>
   135fc:	e1a00005 	mov	r0, r5
   13600:	e1a01006 	mov	r1, r6
   13604:	e3590000 	cmp	r9, #0
   13608:	059f23ac 	ldreq	r2, [pc, #940]	; 139bc <noPixel53$+0x24>
   1360c:	13a0201f 	movne	r2, #31
   13610:	ebfff27e 	bl	10010 <DrawPixel>

00013614 <noPixel44$>:
   13614:	e2855001 	add	r5, r5, #1
   13618:	e1a08088 	lsl	r8, r8, #1
   1361c:	e3180c01 	tst	r8, #256	; 0x100
   13620:	0afffff3 	beq	135f4 <rowLoop44$>
   13624:	e2866001 	add	r6, r6, #1
   13628:	e314000f 	tst	r4, #15
   1362c:	1affffec 	bne	135e4 <charLoop44$>
   13630:	e8bd81f0 	pop	{r4, r5, r6, r7, r8, pc}

00013634 <DrawCharMNUM23>:
   13634:	e92d41f0 	push	{r4, r5, r6, r7, r8, lr}
   13638:	e59f4378 	ldr	r4, [pc, #888]	; 139b8 <noPixel53$+0x20>
   1363c:	e3a00033 	mov	r0, #51	; 0x33
   13640:	e0844200 	add	r4, r4, r0, lsl #4
   13644:	e3a06082 	mov	r6, #130	; 0x82

00013648 <charLoop45$>:
   13648:	e3a05e19 	mov	r5, #400	; 0x190
   1364c:	e28550aa 	add	r5, r5, #170	; 0xaa
   13650:	e3a08001 	mov	r8, #1
   13654:	e4d47001 	ldrb	r7, [r4], #1

00013658 <rowLoop45$>:
   13658:	e1170008 	tst	r7, r8
   1365c:	0a000005 	beq	13678 <noPixel45$>
   13660:	e1a00005 	mov	r0, r5
   13664:	e1a01006 	mov	r1, r6
   13668:	e3590000 	cmp	r9, #0
   1366c:	059f2348 	ldreq	r2, [pc, #840]	; 139bc <noPixel53$+0x24>
   13670:	13a0201f 	movne	r2, #31
   13674:	ebfff265 	bl	10010 <DrawPixel>

00013678 <noPixel45$>:
   13678:	e2855001 	add	r5, r5, #1
   1367c:	e1a08088 	lsl	r8, r8, #1
   13680:	e3180c01 	tst	r8, #256	; 0x100
   13684:	0afffff3 	beq	13658 <rowLoop45$>
   13688:	e2866001 	add	r6, r6, #1
   1368c:	e314000f 	tst	r4, #15
   13690:	1affffec 	bne	13648 <charLoop45$>
   13694:	e8bd81f0 	pop	{r4, r5, r6, r7, r8, pc}

00013698 <DrawCharMNUM24>:
   13698:	e92d41f0 	push	{r4, r5, r6, r7, r8, lr}
   1369c:	e59f4314 	ldr	r4, [pc, #788]	; 139b8 <noPixel53$+0x20>
   136a0:	e3a00034 	mov	r0, #52	; 0x34
   136a4:	e0844200 	add	r4, r4, r0, lsl #4
   136a8:	e3a06082 	mov	r6, #130	; 0x82

000136ac <charLoop46$>:
   136ac:	e3a05e19 	mov	r5, #400	; 0x190
   136b0:	e28550aa 	add	r5, r5, #170	; 0xaa
   136b4:	e3a08001 	mov	r8, #1
   136b8:	e4d47001 	ldrb	r7, [r4], #1

000136bc <rowLoop46$>:
   136bc:	e1170008 	tst	r7, r8
   136c0:	0a000005 	beq	136dc <noPixel46$>
   136c4:	e1a00005 	mov	r0, r5
   136c8:	e1a01006 	mov	r1, r6
   136cc:	e3590000 	cmp	r9, #0
   136d0:	059f22e4 	ldreq	r2, [pc, #740]	; 139bc <noPixel53$+0x24>
   136d4:	13a0201f 	movne	r2, #31
   136d8:	ebfff24c 	bl	10010 <DrawPixel>

000136dc <noPixel46$>:
   136dc:	e2855001 	add	r5, r5, #1
   136e0:	e1a08088 	lsl	r8, r8, #1
   136e4:	e3180c01 	tst	r8, #256	; 0x100
   136e8:	0afffff3 	beq	136bc <rowLoop46$>
   136ec:	e2866001 	add	r6, r6, #1
   136f0:	e314000f 	tst	r4, #15
   136f4:	1affffec 	bne	136ac <charLoop46$>
   136f8:	e8bd81f0 	pop	{r4, r5, r6, r7, r8, pc}

000136fc <DrawCharMNUM25>:
   136fc:	e92d41f0 	push	{r4, r5, r6, r7, r8, lr}
   13700:	e59f42b0 	ldr	r4, [pc, #688]	; 139b8 <noPixel53$+0x20>
   13704:	e3a00035 	mov	r0, #53	; 0x35
   13708:	e0844200 	add	r4, r4, r0, lsl #4
   1370c:	e3a06082 	mov	r6, #130	; 0x82

00013710 <charLoop47$>:
   13710:	e3a05e19 	mov	r5, #400	; 0x190
   13714:	e28550aa 	add	r5, r5, #170	; 0xaa
   13718:	e3a08001 	mov	r8, #1
   1371c:	e4d47001 	ldrb	r7, [r4], #1

00013720 <rowLoop47$>:
   13720:	e1170008 	tst	r7, r8
   13724:	0a000005 	beq	13740 <noPixel47$>
   13728:	e1a00005 	mov	r0, r5
   1372c:	e1a01006 	mov	r1, r6
   13730:	e3590000 	cmp	r9, #0
   13734:	059f2280 	ldreq	r2, [pc, #640]	; 139bc <noPixel53$+0x24>
   13738:	13a0201f 	movne	r2, #31
   1373c:	ebfff233 	bl	10010 <DrawPixel>

00013740 <noPixel47$>:
   13740:	e2855001 	add	r5, r5, #1
   13744:	e1a08088 	lsl	r8, r8, #1
   13748:	e3180c01 	tst	r8, #256	; 0x100
   1374c:	0afffff3 	beq	13720 <rowLoop47$>
   13750:	e2866001 	add	r6, r6, #1
   13754:	e314000f 	tst	r4, #15
   13758:	1affffec 	bne	13710 <charLoop47$>
   1375c:	e8bd81f0 	pop	{r4, r5, r6, r7, r8, pc}

00013760 <DrawCharMNUM26>:
   13760:	e92d41f0 	push	{r4, r5, r6, r7, r8, lr}
   13764:	e59f424c 	ldr	r4, [pc, #588]	; 139b8 <noPixel53$+0x20>
   13768:	e3a00036 	mov	r0, #54	; 0x36
   1376c:	e0844200 	add	r4, r4, r0, lsl #4
   13770:	e3a06082 	mov	r6, #130	; 0x82

00013774 <charLoop48$>:
   13774:	e3a05e19 	mov	r5, #400	; 0x190
   13778:	e28550aa 	add	r5, r5, #170	; 0xaa
   1377c:	e3a08001 	mov	r8, #1
   13780:	e4d47001 	ldrb	r7, [r4], #1

00013784 <rowLoop48$>:
   13784:	e1170008 	tst	r7, r8
   13788:	0a000005 	beq	137a4 <noPixel48$>
   1378c:	e1a00005 	mov	r0, r5
   13790:	e1a01006 	mov	r1, r6
   13794:	e3590000 	cmp	r9, #0
   13798:	059f221c 	ldreq	r2, [pc, #540]	; 139bc <noPixel53$+0x24>
   1379c:	13a0201f 	movne	r2, #31
   137a0:	ebfff21a 	bl	10010 <DrawPixel>

000137a4 <noPixel48$>:
   137a4:	e2855001 	add	r5, r5, #1
   137a8:	e1a08088 	lsl	r8, r8, #1
   137ac:	e3180c01 	tst	r8, #256	; 0x100
   137b0:	0afffff3 	beq	13784 <rowLoop48$>
   137b4:	e2866001 	add	r6, r6, #1
   137b8:	e314000f 	tst	r4, #15
   137bc:	1affffec 	bne	13774 <charLoop48$>
   137c0:	e8bd81f0 	pop	{r4, r5, r6, r7, r8, pc}

000137c4 <DrawCharMNUM27>:
   137c4:	e92d41f0 	push	{r4, r5, r6, r7, r8, lr}
   137c8:	e59f41e8 	ldr	r4, [pc, #488]	; 139b8 <noPixel53$+0x20>
   137cc:	e3a00037 	mov	r0, #55	; 0x37
   137d0:	e0844200 	add	r4, r4, r0, lsl #4
   137d4:	e3a06082 	mov	r6, #130	; 0x82

000137d8 <charLoop49$>:
   137d8:	e3a05e19 	mov	r5, #400	; 0x190
   137dc:	e28550aa 	add	r5, r5, #170	; 0xaa
   137e0:	e3a08001 	mov	r8, #1
   137e4:	e4d47001 	ldrb	r7, [r4], #1

000137e8 <rowLoop49$>:
   137e8:	e1170008 	tst	r7, r8
   137ec:	0a000005 	beq	13808 <noPixel49$>
   137f0:	e1a00005 	mov	r0, r5
   137f4:	e1a01006 	mov	r1, r6
   137f8:	e3590000 	cmp	r9, #0
   137fc:	059f21b8 	ldreq	r2, [pc, #440]	; 139bc <noPixel53$+0x24>
   13800:	13a0201f 	movne	r2, #31
   13804:	ebfff201 	bl	10010 <DrawPixel>

00013808 <noPixel49$>:
   13808:	e2855001 	add	r5, r5, #1
   1380c:	e1a08088 	lsl	r8, r8, #1
   13810:	e3180c01 	tst	r8, #256	; 0x100
   13814:	0afffff3 	beq	137e8 <rowLoop49$>
   13818:	e2866001 	add	r6, r6, #1
   1381c:	e314000f 	tst	r4, #15
   13820:	1affffec 	bne	137d8 <charLoop49$>
   13824:	e8bd81f0 	pop	{r4, r5, r6, r7, r8, pc}

00013828 <DrawCharMNUM28>:
   13828:	e92d41f0 	push	{r4, r5, r6, r7, r8, lr}
   1382c:	e59f4184 	ldr	r4, [pc, #388]	; 139b8 <noPixel53$+0x20>
   13830:	e3a00038 	mov	r0, #56	; 0x38
   13834:	e0844200 	add	r4, r4, r0, lsl #4
   13838:	e3a06082 	mov	r6, #130	; 0x82

0001383c <charLoop50$>:
   1383c:	e3a05e19 	mov	r5, #400	; 0x190
   13840:	e28550aa 	add	r5, r5, #170	; 0xaa
   13844:	e3a08001 	mov	r8, #1
   13848:	e4d47001 	ldrb	r7, [r4], #1

0001384c <rowLoop50$>:
   1384c:	e1170008 	tst	r7, r8
   13850:	0a000005 	beq	1386c <noPixel50$>
   13854:	e1a00005 	mov	r0, r5
   13858:	e1a01006 	mov	r1, r6
   1385c:	e3590000 	cmp	r9, #0
   13860:	059f2154 	ldreq	r2, [pc, #340]	; 139bc <noPixel53$+0x24>
   13864:	13a0201f 	movne	r2, #31
   13868:	ebfff1e8 	bl	10010 <DrawPixel>

0001386c <noPixel50$>:
   1386c:	e2855001 	add	r5, r5, #1
   13870:	e1a08088 	lsl	r8, r8, #1
   13874:	e3180c01 	tst	r8, #256	; 0x100
   13878:	0afffff3 	beq	1384c <rowLoop50$>
   1387c:	e2866001 	add	r6, r6, #1
   13880:	e314000f 	tst	r4, #15
   13884:	1affffec 	bne	1383c <charLoop50$>
   13888:	e8bd81f0 	pop	{r4, r5, r6, r7, r8, pc}

0001388c <DrawCharMNUM29>:
   1388c:	e92d41f0 	push	{r4, r5, r6, r7, r8, lr}
   13890:	e59f4120 	ldr	r4, [pc, #288]	; 139b8 <noPixel53$+0x20>
   13894:	e3a00039 	mov	r0, #57	; 0x39
   13898:	e0844200 	add	r4, r4, r0, lsl #4
   1389c:	e3a06082 	mov	r6, #130	; 0x82

000138a0 <charLoop51$>:
   138a0:	e3a05e19 	mov	r5, #400	; 0x190
   138a4:	e28550aa 	add	r5, r5, #170	; 0xaa
   138a8:	e3a08001 	mov	r8, #1
   138ac:	e4d47001 	ldrb	r7, [r4], #1

000138b0 <rowLoop51$>:
   138b0:	e1170008 	tst	r7, r8
   138b4:	0a000005 	beq	138d0 <noPixel51$>
   138b8:	e1a00005 	mov	r0, r5
   138bc:	e1a01006 	mov	r1, r6
   138c0:	e3590000 	cmp	r9, #0
   138c4:	059f20f0 	ldreq	r2, [pc, #240]	; 139bc <noPixel53$+0x24>
   138c8:	13a0201f 	movne	r2, #31
   138cc:	ebfff1cf 	bl	10010 <DrawPixel>

000138d0 <noPixel51$>:
   138d0:	e2855001 	add	r5, r5, #1
   138d4:	e1a08088 	lsl	r8, r8, #1
   138d8:	e3180c01 	tst	r8, #256	; 0x100
   138dc:	0afffff3 	beq	138b0 <rowLoop51$>
   138e0:	e2866001 	add	r6, r6, #1
   138e4:	e314000f 	tst	r4, #15
   138e8:	1affffec 	bne	138a0 <charLoop51$>
   138ec:	e8bd81f0 	pop	{r4, r5, r6, r7, r8, pc}

000138f0 <DrawCharMNUM30>:
   138f0:	e92d41f0 	push	{r4, r5, r6, r7, r8, lr}
   138f4:	e59f40bc 	ldr	r4, [pc, #188]	; 139b8 <noPixel53$+0x20>
   138f8:	e3a00030 	mov	r0, #48	; 0x30
   138fc:	e0844200 	add	r4, r4, r0, lsl #4
   13900:	e3a06082 	mov	r6, #130	; 0x82

00013904 <charLoop52$>:
   13904:	e3a05e19 	mov	r5, #400	; 0x190
   13908:	e28550a0 	add	r5, r5, #160	; 0xa0
   1390c:	e3a08001 	mov	r8, #1
   13910:	e4d47001 	ldrb	r7, [r4], #1

00013914 <rowLoop52$>:
   13914:	e1170008 	tst	r7, r8
   13918:	0a000005 	beq	13934 <noPixel52$>
   1391c:	e1a00005 	mov	r0, r5
   13920:	e1a01006 	mov	r1, r6
   13924:	e3590000 	cmp	r9, #0
   13928:	059f208c 	ldreq	r2, [pc, #140]	; 139bc <noPixel53$+0x24>
   1392c:	13a0201f 	movne	r2, #31
   13930:	ebfff1b6 	bl	10010 <DrawPixel>

00013934 <noPixel52$>:
   13934:	e2855001 	add	r5, r5, #1
   13938:	e1a08088 	lsl	r8, r8, #1
   1393c:	e3180c01 	tst	r8, #256	; 0x100
   13940:	0afffff3 	beq	13914 <rowLoop52$>
   13944:	e2866001 	add	r6, r6, #1
   13948:	e314000f 	tst	r4, #15
   1394c:	1affffec 	bne	13904 <charLoop52$>
   13950:	e8bd81f0 	pop	{r4, r5, r6, r7, r8, pc}

00013954 <DrawCharMNUM31>:
   13954:	e92d41f0 	push	{r4, r5, r6, r7, r8, lr}
   13958:	e59f4058 	ldr	r4, [pc, #88]	; 139b8 <noPixel53$+0x20>
   1395c:	e3a00031 	mov	r0, #49	; 0x31
   13960:	e0844200 	add	r4, r4, r0, lsl #4
   13964:	e3a06082 	mov	r6, #130	; 0x82

00013968 <charLoop53$>:
   13968:	e3a05e19 	mov	r5, #400	; 0x190
   1396c:	e28550a0 	add	r5, r5, #160	; 0xa0
   13970:	e3a08001 	mov	r8, #1
   13974:	e4d47001 	ldrb	r7, [r4], #1

00013978 <rowLoop53$>:
   13978:	e1170008 	tst	r7, r8
   1397c:	0a000005 	beq	13998 <noPixel53$>
   13980:	e1a00005 	mov	r0, r5
   13984:	e1a01006 	mov	r1, r6
   13988:	e3590000 	cmp	r9, #0
   1398c:	059f2028 	ldreq	r2, [pc, #40]	; 139bc <noPixel53$+0x24>
   13990:	13a0201f 	movne	r2, #31
   13994:	ebfff19d 	bl	10010 <DrawPixel>

00013998 <noPixel53$>:
   13998:	e2855001 	add	r5, r5, #1
   1399c:	e1a08088 	lsl	r8, r8, #1
   139a0:	e3180c01 	tst	r8, #256	; 0x100
   139a4:	0afffff3 	beq	13978 <rowLoop53$>
   139a8:	e2866001 	add	r6, r6, #1
   139ac:	e314000f 	tst	r4, #15
   139b0:	1affffec 	bne	13968 <charLoop53$>
   139b4:	e8bd81f0 	pop	{r4, r5, r6, r7, r8, pc}
   139b8:	0000b000 	.word	0x0000b000
   139bc:	0000ffff 	.word	0x0000ffff

000139c0 <Drawwall16bpp>:
   139c0:	e92d07ff 	push	{r0, r1, r2, r3, r4, r5, r6, r7, r8, r9, sl}
   139c4:	e59f304c 	ldr	r3, [pc, #76]	; 13a18 <wallfill+0x3c>
   139c8:	e3a00000 	mov	r0, #0
   139cc:	e0810502 	add	r0, r1, r2, lsl #10
   139d0:	e1a00080 	lsl	r0, r0, #1
   139d4:	e3a05000 	mov	r5, #0
   139d8:	e3a06000 	mov	r6, #0

000139dc <wallfill>:
   139dc:	e18430b0 	strh	r3, [r4, r0]
   139e0:	e2800001 	add	r0, r0, #1
   139e4:	e2855001 	add	r5, r5, #1
   139e8:	e3550040 	cmp	r5, #64	; 0x40
   139ec:	1afffffa 	bne	139dc <wallfill>
   139f0:	e2822001 	add	r2, r2, #1
   139f4:	e3a00000 	mov	r0, #0
   139f8:	e0810502 	add	r0, r1, r2, lsl #10
   139fc:	e1a00080 	lsl	r0, r0, #1
   13a00:	e2866001 	add	r6, r6, #1
   13a04:	e3a05000 	mov	r5, #0
   13a08:	e3560020 	cmp	r6, #32
   13a0c:	1afffff2 	bne	139dc <wallfill>
   13a10:	e8bd07ff 	pop	{r0, r1, r2, r3, r4, r5, r6, r7, r8, r9, sl}
   13a14:	e12fff1e 	bx	lr
   13a18:	00007bef 	.word	0x00007bef

00013a1c <ReadSNES>:
   13a1c:	e92d0030 	push	{r4, r5}
   13a20:	e3a04000 	mov	r4, #0
   13a24:	e3a0000b 	mov	r0, #11
   13a28:	e3a01001 	mov	r1, #1
   13a2c:	e52de004 	push	{lr}		; (str lr, [sp, #-4]!)
   13a30:	eb00003a 	bl	13b20 <writeGPIO>
   13a34:	e49de004 	pop	{lr}		; (ldr lr, [sp], #4)
   13a38:	e3a00009 	mov	r0, #9
   13a3c:	e3a01001 	mov	r1, #1
   13a40:	e52de004 	push	{lr}		; (str lr, [sp, #-4]!)
   13a44:	eb000035 	bl	13b20 <writeGPIO>
   13a48:	e49de004 	pop	{lr}		; (ldr lr, [sp], #4)
   13a4c:	e3a0000c 	mov	r0, #12
   13a50:	e52de004 	push	{lr}		; (str lr, [sp, #-4]!)
   13a54:	eb000041 	bl	13b60 <waitFunc>
   13a58:	e49de004 	pop	{lr}		; (ldr lr, [sp], #4)
   13a5c:	e3a00009 	mov	r0, #9
   13a60:	e3a01000 	mov	r1, #0
   13a64:	e52de004 	push	{lr}		; (str lr, [sp, #-4]!)
   13a68:	eb00002c 	bl	13b20 <writeGPIO>
   13a6c:	e49de004 	pop	{lr}		; (ldr lr, [sp], #4)
   13a70:	e3a05000 	mov	r5, #0

00013a74 <pulseLoop>:
   13a74:	e3a00006 	mov	r0, #6
   13a78:	e52de004 	push	{lr}		; (str lr, [sp, #-4]!)
   13a7c:	eb000037 	bl	13b60 <waitFunc>
   13a80:	e49de004 	pop	{lr}		; (ldr lr, [sp], #4)
   13a84:	e3a0000b 	mov	r0, #11
   13a88:	e3a01000 	mov	r1, #0
   13a8c:	e52de004 	push	{lr}		; (str lr, [sp, #-4]!)
   13a90:	eb000022 	bl	13b20 <writeGPIO>
   13a94:	e49de004 	pop	{lr}		; (ldr lr, [sp], #4)
   13a98:	e3a00006 	mov	r0, #6
   13a9c:	e52de004 	push	{lr}		; (str lr, [sp, #-4]!)
   13aa0:	eb00002e 	bl	13b60 <waitFunc>
   13aa4:	e49de004 	pop	{lr}		; (ldr lr, [sp], #4)
   13aa8:	e3a0000a 	mov	r0, #10
   13aac:	e52de004 	push	{lr}		; (str lr, [sp, #-4]!)
   13ab0:	eb000021 	bl	13b3c <readGPIO>
   13ab4:	e49de004 	pop	{lr}		; (ldr lr, [sp], #4)
   13ab8:	e1a00510 	lsl	r0, r0, r5
   13abc:	e1844000 	orr	r4, r4, r0
   13ac0:	e3a0000b 	mov	r0, #11
   13ac4:	e3a01001 	mov	r1, #1
   13ac8:	e52de004 	push	{lr}		; (str lr, [sp, #-4]!)
   13acc:	eb000013 	bl	13b20 <writeGPIO>
   13ad0:	e49de004 	pop	{lr}		; (ldr lr, [sp], #4)
   13ad4:	e2855001 	add	r5, r5, #1
   13ad8:	e3550010 	cmp	r5, #16
   13adc:	baffffe4 	blt	13a74 <pulseLoop>
   13ae0:	e3a05000 	mov	r5, #0
   13ae4:	e3a00000 	mov	r0, #0

00013ae8 <parseButtonLoop>:
   13ae8:	e3a01001 	mov	r1, #1
   13aec:	e1a01511 	lsl	r1, r1, r5
   13af0:	e0042001 	and	r2, r4, r1
   13af4:	e3320000 	teq	r2, #0
   13af8:	0a000003 	beq	13b0c <notPressed>
   13afc:	e3500000 	cmp	r0, #0
   13b00:	13a00000 	movne	r0, #0
   13b04:	1a000003 	bne	13b18 <parseDone>
   13b08:	e2850001 	add	r0, r5, #1

00013b0c <notPressed>:
   13b0c:	e2855001 	add	r5, r5, #1
   13b10:	e355000c 	cmp	r5, #12
   13b14:	bafffff3 	blt	13ae8 <parseButtonLoop>

00013b18 <parseDone>:
   13b18:	e8bd0030 	pop	{r4, r5}
   13b1c:	e12fff1e 	bx	lr

00013b20 <writeGPIO>:
   13b20:	e59f2054 	ldr	r2, [pc, #84]	; 13b7c <waitLoop+0x10>
   13b24:	e3a03001 	mov	r3, #1
   13b28:	e1a03013 	lsl	r3, r3, r0
   13b2c:	e3310000 	teq	r1, #0
   13b30:	05823028 	streq	r3, [r2, #40]	; 0x28
   13b34:	1582301c 	strne	r3, [r2, #28]
   13b38:	e12fff1e 	bx	lr

00013b3c <readGPIO>:
   13b3c:	e59f203c 	ldr	r2, [pc, #60]	; 13b80 <waitLoop+0x14>
   13b40:	e3a03001 	mov	r3, #1
   13b44:	e5921000 	ldr	r1, [r2]
   13b48:	e1a03013 	lsl	r3, r3, r0
   13b4c:	e0011003 	and	r1, r1, r3
   13b50:	e3310000 	teq	r1, #0
   13b54:	03a00001 	moveq	r0, #1
   13b58:	13a00000 	movne	r0, #0
   13b5c:	e12fff1e 	bx	lr

00013b60 <waitFunc>:
   13b60:	e59f101c 	ldr	r1, [pc, #28]	; 13b84 <waitLoop+0x18>
   13b64:	e5912000 	ldr	r2, [r1]
   13b68:	e0822000 	add	r2, r2, r0

00013b6c <waitLoop>:
   13b6c:	e5913000 	ldr	r3, [r1]
   13b70:	e1520003 	cmp	r2, r3
   13b74:	8afffffc 	bhi	13b6c <waitLoop>
   13b78:	e12fff1e 	bx	lr
   13b7c:	20200000 	.word	0x20200000
   13b80:	20200034 	.word	0x20200034
   13b84:	20003004 	.word	0x20003004

00013b88 <Redrawmaze>:
   13b88:	e92d07fe 	push	{r1, r2, r3, r4, r5, r6, r7, r8, r9, sl}
   13b8c:	e52d3004 	push	{r3}		; (str r3, [sp, #-4]!)
   13b90:	e49d9004 	pop	{r9}		; (ldr r9, [sp], #4)
   13b94:	e1a0100b 	mov	r1, fp
   13b98:	e1a0200c 	mov	r2, ip
   13b9c:	e52de004 	push	{lr}		; (str lr, [sp, #-4]!)
   13ba0:	ebfff2c4 	bl	106b8 <Drawstart16bpp>
   13ba4:	e49de004 	pop	{lr}		; (ldr lr, [sp], #4)
   13ba8:	e3a01c01 	mov	r1, #256	; 0x100
   13bac:	e3a020a0 	mov	r2, #160	; 0xa0
   13bb0:	e3a00000 	mov	r0, #0
   13bb4:	e3a06000 	mov	r6, #0
   13bb8:	e3a07000 	mov	r7, #0

00013bbc <redrawloop>:
   13bbc:	e7d95007 	ldrb	r5, [r9, r7]
   13bc0:	e2800001 	add	r0, r0, #1
   13bc4:	e2877001 	add	r7, r7, #1
   13bc8:	e3550005 	cmp	r5, #5
   13bcc:	e52de004 	push	{lr}		; (str lr, [sp, #-4]!)
   13bd0:	0bfff0f7 	bleq	ffb4 <Clear>
   13bd4:	e49de004 	pop	{lr}		; (ldr lr, [sp], #4)
   13bd8:	e3550005 	cmp	r5, #5
   13bdc:	e52de004 	push	{lr}		; (str lr, [sp, #-4]!)
   13be0:	0bfff23d 	bleq	104dc <Drawfloor16bpp>
   13be4:	e49de004 	pop	{lr}		; (ldr lr, [sp], #4)
   13be8:	e3550006 	cmp	r5, #6
   13bec:	e52de004 	push	{lr}		; (str lr, [sp, #-4]!)
   13bf0:	0bffe4ea 	bleq	cfa0 <Drawman16bpp>
   13bf4:	e49de004 	pop	{lr}		; (ldr lr, [sp], #4)
   13bf8:	e3550007 	cmp	r5, #7
   13bfc:	e52de004 	push	{lr}		; (str lr, [sp, #-4]!)
   13c00:	0bfff235 	bleq	104dc <Drawfloor16bpp>
   13c04:	e49de004 	pop	{lr}		; (ldr lr, [sp], #4)
   13c08:	e2811020 	add	r1, r1, #32
   13c0c:	e3500011 	cmp	r0, #17
   13c10:	1affffe9 	bne	13bbc <redrawloop>
   13c14:	e3a00000 	mov	r0, #0
   13c18:	e2822020 	add	r2, r2, #32
   13c1c:	e2411e22 	sub	r1, r1, #544	; 0x220
   13c20:	e2866001 	add	r6, r6, #1
   13c24:	e3560011 	cmp	r6, #17
   13c28:	1affffe3 	bne	13bbc <redrawloop>
   13c2c:	e8bd07fe 	pop	{r1, r2, r3, r4, r5, r6, r7, r8, r9, sl}
   13c30:	e12fff1e 	bx	lr
